
DE0_NANO_SOC_ADC.elf:     file format elf32-littlenios2
DE0_NANO_SOC_ADC.elf
architecture: nios2, flags 0x00000112:
EXEC_P, HAS_SYMS, D_PAGED
start address 0x000401b8

Program Header:
    LOAD off    0x00001000 vaddr 0x00040000 paddr 0x00040000 align 2**12
         filesz 0x00000020 memsz 0x00000020 flags r-x
    LOAD off    0x00001020 vaddr 0x00040020 paddr 0x00040020 align 2**12
         filesz 0x0000c4f4 memsz 0x0000c4f4 flags r-x
    LOAD off    0x0000d514 vaddr 0x0004c514 paddr 0x0004df6c align 2**12
         filesz 0x00001a58 memsz 0x00001a58 flags rw-
    LOAD off    0x0000f9c4 vaddr 0x0004f9c4 paddr 0x0004f9c4 align 2**12
         filesz 0x00000000 memsz 0x000002ec flags rw-

Sections:
Idx Name          Size      VMA       LMA       File off  Algn
  0 .entry        00000020  00040000  00040000  00001000  2**5
                  CONTENTS, ALLOC, LOAD, READONLY, CODE
  1 .exceptions   00000198  00040020  00040020  00001020  2**2
                  CONTENTS, ALLOC, LOAD, READONLY, CODE
  2 .text         0000bff4  000401b8  000401b8  000011b8  2**2
                  CONTENTS, ALLOC, LOAD, READONLY, CODE
  3 .rodata       00000368  0004c1ac  0004c1ac  0000d1ac  2**2
                  CONTENTS, ALLOC, LOAD, READONLY, DATA
  4 .rwdata       00001a58  0004c514  0004df6c  0000d514  2**2
                  CONTENTS, ALLOC, LOAD, DATA, SMALL_DATA
  5 .bss          000002ec  0004f9c4  0004f9c4  0000f9c4  2**2
                  ALLOC, SMALL_DATA
  6 .comment      00000023  00000000  00000000  0000ef6c  2**0
                  CONTENTS, READONLY
  7 .debug_aranges 00000e00  00000000  00000000  0000ef90  2**3
                  CONTENTS, READONLY, DEBUGGING
  8 .debug_info   00023366  00000000  00000000  0000fd90  2**0
                  CONTENTS, READONLY, DEBUGGING
  9 .debug_abbrev 0000952b  00000000  00000000  000330f6  2**0
                  CONTENTS, READONLY, DEBUGGING
 10 .debug_line   0000a205  00000000  00000000  0003c621  2**0
                  CONTENTS, READONLY, DEBUGGING
 11 .debug_frame  00001848  00000000  00000000  00046828  2**2
                  CONTENTS, READONLY, DEBUGGING
 12 .debug_str    00002c81  00000000  00000000  00048070  2**0
                  CONTENTS, READONLY, DEBUGGING
 13 .debug_loc    00010a04  00000000  00000000  0004acf1  2**0
                  CONTENTS, READONLY, DEBUGGING
 14 .debug_alt_sim_info 00000060  00000000  00000000  0005b6f8  2**2
                  CONTENTS, READONLY, DEBUGGING
 15 .debug_ranges 00000a88  00000000  00000000  0005b758  2**3
                  CONTENTS, READONLY, DEBUGGING
 16 .thread_model 00000003  00000000  00000000  0005f1a1  2**0
                  CONTENTS, READONLY
 17 .cpu          0000000a  00000000  00000000  0005f1a4  2**0
                  CONTENTS, READONLY
 18 .qsys         00000001  00000000  00000000  0005f1ae  2**0
                  CONTENTS, READONLY
 19 .simulation_enabled 00000001  00000000  00000000  0005f1af  2**0
                  CONTENTS, READONLY
 20 .sysid_hash   00000004  00000000  00000000  0005f1b0  2**0
                  CONTENTS, READONLY
 21 .sysid_base   00000004  00000000  00000000  0005f1b4  2**0
                  CONTENTS, READONLY
 22 .sysid_time   00000004  00000000  00000000  0005f1b8  2**0
                  CONTENTS, READONLY
 23 .stderr_dev   00000009  00000000  00000000  0005f1bc  2**0
                  CONTENTS, READONLY
 24 .stdin_dev    00000009  00000000  00000000  0005f1c5  2**0
                  CONTENTS, READONLY
 25 .stdout_dev   00000009  00000000  00000000  0005f1ce  2**0
                  CONTENTS, READONLY
 26 .sopc_system_name 00000011  00000000  00000000  0005f1d7  2**0
                  CONTENTS, READONLY
 27 .quartus_project_dir 00000024  00000000  00000000  0005f1e8  2**0
                  CONTENTS, READONLY
 28 .jdi          00005567  00000000  00000000  0005f20c  2**0
                  CONTENTS, READONLY
 29 .sopcinfo     00054d1c  00000000  00000000  00064773  2**0
                  CONTENTS, READONLY
SYMBOL TABLE:
00040000 l    d  .entry	00000000 .entry
00040020 l    d  .exceptions	00000000 .exceptions
000401b8 l    d  .text	00000000 .text
0004c1ac l    d  .rodata	00000000 .rodata
0004c514 l    d  .rwdata	00000000 .rwdata
0004f9c4 l    d  .bss	00000000 .bss
00000000 l    d  .comment	00000000 .comment
00000000 l    d  .debug_aranges	00000000 .debug_aranges
00000000 l    d  .debug_info	00000000 .debug_info
00000000 l    d  .debug_abbrev	00000000 .debug_abbrev
00000000 l    d  .debug_line	00000000 .debug_line
00000000 l    d  .debug_frame	00000000 .debug_frame
00000000 l    d  .debug_str	00000000 .debug_str
00000000 l    d  .debug_loc	00000000 .debug_loc
00000000 l    d  .debug_alt_sim_info	00000000 .debug_alt_sim_info
00000000 l    d  .debug_ranges	00000000 .debug_ranges
00000000 l    df *ABS*	00000000 ../DE0_NANO_SOC_ADC_bsp//obj/HAL/src/crt0.o
00040200 l       .text	00000000 alt_after_alt_main
00000000 l    df *ABS*	00000000 alt_exception_entry.o
00040094 l       .exceptions	00000000 alt_exception_unknown
00000000 l    df *ABS*	00000000 alt_irq_handler.c
00000000 l    df *ABS*	00000000 main.c
00000000 l    df *ABS*	00000000 fp-bit.c
00000000 l    df *ABS*	00000000 fp-bit.c
00000000 l    df *ABS*	00000000 fp-bit.c
00000000 l    df *ABS*	00000000 fp-bit.c
00000000 l    df *ABS*	00000000 fp-bit.c
00000000 l    df *ABS*	00000000 libgcc2.c
00000000 l    df *ABS*	00000000 fp-bit.c
00000000 l    df *ABS*	00000000 fp-bit.c
00000000 l    df *ABS*	00000000 fp-bit.c
00000000 l    df *ABS*	00000000 fp-bit.c
00000000 l    df *ABS*	00000000 libgcc2.c
00000000 l    df *ABS*	00000000 libgcc2.c
00000000 l    df *ABS*	00000000 libgcc2.c
00000000 l    df *ABS*	00000000 printf.c
00000000 l    df *ABS*	00000000 puts.c
00000000 l    df *ABS*	00000000 strlen.c
00000000 l    df *ABS*	00000000 vfprintf.c
00040e30 l     F .text	00000034 __sprint_r
0004c34e l     O .rodata	00000010 blanks.3546
0004c35e l     O .rodata	00000010 zeroes.3547
00000000 l    df *ABS*	00000000 wsetup.c
00000000 l    df *ABS*	00000000 dtoa.c
00042df4 l     F .text	00000208 quorem
00000000 l    df *ABS*	00000000 fflush.c
00000000 l    df *ABS*	00000000 findfp.c
00044830 l     F .text	00000008 __fp_lock
00044838 l     F .text	00000008 __fp_unlock
00000000 l    df *ABS*	00000000 mallocr.c
00000000 l    df *ABS*	00000000 fvwrite.c
00000000 l    df *ABS*	00000000 fwalk.c
00000000 l    df *ABS*	00000000 impure.c
0004c514 l     O .rwdata	00000400 impure_data
00000000 l    df *ABS*	00000000 locale.c
0004c394 l     O .rodata	00000030 lconv
00000000 l    df *ABS*	00000000 makebuf.c
00000000 l    df *ABS*	00000000 mallocr.c
00000000 l    df *ABS*	00000000 memchr.c
00000000 l    df *ABS*	00000000 memcpy.c
00000000 l    df *ABS*	00000000 memmove.c
00000000 l    df *ABS*	00000000 memset.c
00000000 l    df *ABS*	00000000 mprec.c
0004c4dc l     O .rodata	0000000c p05.2466
00000000 l    df *ABS*	00000000 mallocr.c
00000000 l    df *ABS*	00000000 s_isinfd.c
00000000 l    df *ABS*	00000000 s_isnand.c
00000000 l    df *ABS*	00000000 sbrkr.c
00000000 l    df *ABS*	00000000 stdio.c
00000000 l    df *ABS*	00000000 strcmp.c
00000000 l    df *ABS*	00000000 writer.c
00000000 l    df *ABS*	00000000 mallocr.c
00000000 l    df *ABS*	00000000 closer.c
00000000 l    df *ABS*	00000000 fclose.c
00000000 l    df *ABS*	00000000 fstatr.c
00000000 l    df *ABS*	00000000 int_errno.c
00000000 l    df *ABS*	00000000 isattyr.c
00000000 l    df *ABS*	00000000 lseekr.c
00000000 l    df *ABS*	00000000 readr.c
00000000 l    df *ABS*	00000000 libgcc2.c
00000000 l    df *ABS*	00000000 libgcc2.c
00000000 l    df *ABS*	00000000 fp-bit.c
00048b78 l     F .text	00000354 _fpadd_parts
00000000 l    df *ABS*	00000000 fp-bit.c
00000000 l    df *ABS*	00000000 fp-bit.c
00000000 l    df *ABS*	00000000 fp-bit.c
00000000 l    df *ABS*	00000000 fp-bit.c
00000000 l    df *ABS*	00000000 fp-bit.c
00000000 l    df *ABS*	00000000 fp-bit.c
00000000 l    df *ABS*	00000000 fp-bit.c
00000000 l    df *ABS*	00000000 fp-bit.c
00000000 l    df *ABS*	00000000 fp-bit.c
00000000 l    df *ABS*	00000000 lib2-divmod.c
000496f4 l     F .text	00000074 udivmodsi4
00000000 l    df *ABS*	00000000 libgcc2.c
00000000 l    df *ABS*	00000000 fp-bit.c
00000000 l    df *ABS*	00000000 alt_close.c
00049954 l     F .text	00000050 alt_get_errno
00000000 l    df *ABS*	00000000 alt_dev.c
00049a6c l     F .text	0000002c alt_dev_null_write
00000000 l    df *ABS*	00000000 alt_errno.c
00000000 l    df *ABS*	00000000 alt_fstat.c
00049a98 l     F .text	00000050 alt_get_errno
00000000 l    df *ABS*	00000000 alt_isatty.c
00049b94 l     F .text	00000050 alt_get_errno
00000000 l    df *ABS*	00000000 alt_load.c
00049c84 l     F .text	0000006c alt_load_section
00000000 l    df *ABS*	00000000 alt_lseek.c
00049d70 l     F .text	00000050 alt_get_errno
00000000 l    df *ABS*	00000000 alt_main.c
00000000 l    df *ABS*	00000000 alt_malloc_lock.c
00000000 l    df *ABS*	00000000 alt_read.c
00049f48 l     F .text	00000050 alt_get_errno
00000000 l    df *ABS*	00000000 alt_release_fd.c
00000000 l    df *ABS*	00000000 alt_sbrk.c
0004df5c l     O .rwdata	00000004 heap_end
00000000 l    df *ABS*	00000000 alt_usleep.c
00000000 l    df *ABS*	00000000 alt_write.c
0004a1c8 l     F .text	00000050 alt_get_errno
00000000 l    df *ABS*	00000000 alt_sys_init.c
0004a304 l     F .text	00000038 alt_dev_reg
0004ced0 l     O .rwdata	00001060 jtag_uart
00000000 l    df *ABS*	00000000 altera_avalon_jtag_uart_fd.c
00000000 l    df *ABS*	00000000 altera_avalon_jtag_uart_init.c
0004a5dc l     F .text	00000204 altera_avalon_jtag_uart_irq
0004a7e0 l     F .text	000000a4 altera_avalon_jtag_uart_timeout
00000000 l    df *ABS*	00000000 altera_avalon_jtag_uart_ioctl.c
00000000 l    df *ABS*	00000000 altera_avalon_jtag_uart_read.c
00000000 l    df *ABS*	00000000 altera_avalon_jtag_uart_write.c
00000000 l    df *ABS*	00000000 alt_alarm_start.c
00000000 l    df *ABS*	00000000 alt_busy_sleep.c
00000000 l    df *ABS*	00000000 alt_dcache_flush_all.c
00000000 l    df *ABS*	00000000 alt_dev_llist_insert.c
0004b0f0 l     F .text	00000050 alt_get_errno
00000000 l    df *ABS*	00000000 alt_do_ctors.c
00000000 l    df *ABS*	00000000 alt_do_dtors.c
00000000 l    df *ABS*	00000000 alt_icache_flush_all.c
00000000 l    df *ABS*	00000000 alt_iic.c
00000000 l    df *ABS*	00000000 alt_iic_isr_register.c
00000000 l    df *ABS*	00000000 alt_io_redirect.c
0004b590 l     F .text	000000c0 alt_open_fd
00000000 l    df *ABS*	00000000 alt_irq_vars.c
00000000 l    df *ABS*	00000000 alt_open.c
0004b6c8 l     F .text	00000050 alt_get_errno
0004b718 l     F .text	000000cc alt_file_locked
00000000 l    df *ABS*	00000000 alt_tick.c
00000000 l    df *ABS*	00000000 altera_nios2_qsys_irq.c
00000000 l    df *ABS*	00000000 alt_find_dev.c
00000000 l    df *ABS*	00000000 alt_find_file.c
00000000 l    df *ABS*	00000000 alt_get_fd.c
00000000 l    df *ABS*	00000000 alt_icache_flush.c
00000000 l    df *ABS*	00000000 atexit.c
00000000 l    df *ABS*	00000000 exit.c
00000000 l    df *ABS*	00000000 memcmp.c
00000000 l    df *ABS*	00000000 __atexit.c
00000000 l    df *ABS*	00000000 __call_atexit.c
00000000 l    df *ABS*	00000000 alt_exit.c
00000000 l    df *ABS*	00000000 
00047188 g     F .text	00000074 _mprec_log10
00047278 g     F .text	00000084 __any_on
00047ee8 g     F .text	00000064 _isatty_r
0004c3c4 g     O .rodata	00000028 __mprec_tinytens
00049e90 g     F .text	00000078 alt_main
00040c60 g     F .text	00000044 __ashldi3
00040d0c g     F .text	00000084 _puts_r
0004fa20 g     O .bss	00000100 alt_irq
00047f4c g     F .text	0000006c _lseek_r
0004df6c g       *ABS*	00000000 __flash_rwdata_start
00049264 g     F .text	0000005c __eqdf2
0004fcb0 g       *ABS*	00000000 __alt_heap_start
00040cd0 g     F .text	0000003c printf
00047a9c g     F .text	0000005c __sseek
000448c0 g     F .text	0000010c __sinit
00045558 g     F .text	0000009c _setlocale_r
0004484c g     F .text	00000064 __sfmoreglue
00049f28 g     F .text	00000020 __malloc_unlock
00046150 g     F .text	00000128 memmove
000448b0 g     F .text	00000010 _cleanup
00046354 g     F .text	000000a8 _Balloc
0004931c g     F .text	00000064 __gtdf2
00000000  w      *UND*	00000000 __errno
00040000 g     F .entry	0000001c __reset
00040020 g       *ABS*	00000000 __flash_exceptions_start
00047e80 g     F .text	00000068 _fstat_r
0004f9dc g     O .bss	00000004 errno
0004061c g     F .text	00000038 __make_dp
0004f9e4 g     O .bss	00000004 alt_argv
00055f30 g       *ABS*	00000000 _gp
0004a198 g     F .text	00000030 usleep
0004cd50 g     O .rwdata	00000180 alt_fd_list
0004baf4 g     F .text	00000090 alt_find_dev
00046058 g     F .text	000000f8 memcpy
00044840 g     F .text	0000000c _cleanup_r
00049440 g     F .text	000000d4 __floatsidf
0004b650 g     F .text	00000078 alt_io_redirect
000493e4 g     F .text	0000005c __ltdf2
0004c1ac g       *ABS*	00000000 __DTOR_END__
00040d90 g     F .text	00000014 puts
000470e4 g     F .text	000000a4 __ratio
0004a9e0 g     F .text	00000218 altera_avalon_jtag_uart_read
00000000  w      *UND*	00000000 malloc
00040ca4 g     F .text	0000002c _printf_r
00049814 g     F .text	00000008 __udivsi3
00049be4 g     F .text	000000a0 isatty
0004c414 g     O .rodata	000000c8 __mprec_tens
000455f4 g     F .text	0000000c __locale_charset
0004bd4c g     F .text	0000008c alt_icache_flush
0004f9d8 g     O .bss	00000004 __malloc_top_pad
0004df38 g     O .rwdata	00000004 __mb_cur_max
00045600 g     F .text	0000000c _localeconv_r
00046754 g     F .text	0000003c __i2b
00044f14 g     F .text	000004e4 __sfvwrite_r
0004795c g     F .text	00000064 _sbrk_r
00047fb8 g     F .text	0000006c _read_r
0004c914 g     O .rwdata	0000000c __lc_ctype
0004df54 g     O .rwdata	00000004 alt_max_fd
00040b18 g     F .text	00000104 __unpack_d
00047d30 g     F .text	0000013c _fclose_r
00044800 g     F .text	00000030 fflush
0004f9d4 g     O .bss	00000004 __malloc_max_sbrked_mem
00040424 g     F .text	00000044 __extendsfdf2
00048ecc g     F .text	00000054 __adddf3
00046e58 g     F .text	00000148 __b2d
000485ec g     F .text	0000058c __umoddi3
00049dc0 g     F .text	000000d0 lseek
0004df30 g     O .rwdata	00000004 _global_impure_ptr
000472fc g     F .text	000005fc _realloc_r
0004fcb0 g       *ABS*	00000000 __bss_end
0004b4a0 g     F .text	000000f0 alt_iic_isr_register
0004b9d0 g     F .text	00000104 alt_tick
00048024 g     F .text	000005c8 __udivdi3
0004c3ec g     O .rodata	00000028 __mprec_bigtens
00046538 g     F .text	00000104 __s2b
000495d8 g     F .text	0000011c __floatunsidf
00046bf8 g     F .text	00000058 __mcmp
00044ad8 g     F .text	00000018 __fp_lock_all
0004b454 g     F .text	0000004c alt_ic_irq_enabled
0004b938 g     F .text	00000098 alt_alarm_stop
0004f9ec g     O .bss	00000004 alt_irq_active
000400ec g     F .exceptions	000000cc alt_irq_handler
0004cd28 g     O .rwdata	00000028 alt_dev_null
0004082c g     F .text	000000c8 __unpack_f
0004b0ac g     F .text	00000044 alt_dcache_flush_all
0004663c g     F .text	00000068 __hi0bits
00049514 g     F .text	000000c4 __fixdfsi
0004df6c g       *ABS*	00000000 __ram_rwdata_end
0004df4c g     O .rwdata	00000008 alt_dev_list
0004a218 g     F .text	000000ec write
0004c514 g       *ABS*	00000000 __ram_rodata_end
00049ae8 g     F .text	000000ac fstat
00040c1c g     F .text	00000044 __lshrdi3
00046970 g     F .text	0000012c __pow5mult
0004f9cc g     O .bss	00000004 __nlocale_changed
0004981c g     F .text	00000008 __umodsi3
0004fcb0 g       *ABS*	00000000 end
00040700 g     F .text	0000012c __pack_f
0004a51c g     F .text	000000c0 altera_avalon_jtag_uart_init
0004c1ac g       *ABS*	00000000 __CTOR_LIST__
00067100 g       *ABS*	00000000 __alt_stack_pointer
00040654 g     F .text	000000ac __clzsi2
0004abf8 g     F .text	00000220 altera_avalon_jtag_uart_write
00044ac8 g     F .text	00000004 __sfp_lock_acquire
00045f60 g     F .text	000000f8 memchr
00040e64 g     F .text	00001df8 ___vfprintf_internal_r
00044c44 g     F .text	000002d0 _free_r
0004bfd0 g     F .text	000001a0 __call_exitprocs
0004f9c8 g     O .bss	00000004 __mlocale_changed
0004df3c g     O .rwdata	00000004 __malloc_sbrk_base
000401b8 g     F .text	0000004c _start
0004f9f0 g     O .bss	00000004 _alt_tick_rate
00046a9c g     F .text	0000015c __lshift
0004f9f4 g     O .bss	00000004 _alt_nticks
00049f98 g     F .text	000000f0 read
0004a370 g     F .text	00000048 alt_sys_init
00040380 g     F .text	000000a4 __floatsisf
0004bea0 g     F .text	00000130 __register_exitproc
00046790 g     F .text	000001e0 __multiply
0004a884 g     F .text	00000068 altera_avalon_jtag_uart_close
0004c514 g       *ABS*	00000000 __ram_rwdata_start
0004c1ac g       *ABS*	00000000 __ram_rodata_start
0004f9f8 g     O .bss	00000028 __malloc_current_mallinfo
00046fa0 g     F .text	00000144 __d2b
0004a3b8 g     F .text	00000060 altera_avalon_jtag_uart_read_fd
0004bc98 g     F .text	000000b4 alt_get_fd
0004af58 g     F .text	00000154 alt_busy_sleep
00049884 g     F .text	000000d0 __fpcmp_parts_d
00047ccc g     F .text	00000064 _close_r
0004be24 g     F .text	0000007c memcmp
0004a478 g     F .text	00000050 altera_avalon_jtag_uart_close_fd
0004fcb0 g       *ABS*	00000000 __alt_stack_base
0004a4c8 g     F .text	00000054 altera_avalon_jtag_uart_ioctl_fd
00042c80 g     F .text	00000174 __swsetup_r
00040468 g     F .text	000001b4 __divdf3
000449cc g     F .text	000000fc __sfp
000471fc g     F .text	0000007c __copybits
0004c920 g     O .rwdata	00000408 __malloc_av_
00044ad4 g     F .text	00000004 __sinit_lock_release
00048f80 g     F .text	000002e4 __muldf3
000479c0 g     F .text	00000054 __sread
0004bb84 g     F .text	00000114 alt_find_file
0004b140 g     F .text	000000a0 alt_dev_llist_insert
00049f08 g     F .text	00000020 __malloc_lock
0004a0e8 g     F .text	000000b0 sbrk
00044618 g     F .text	000001e8 _fflush_r
00047c10 g     F .text	000000bc _calloc_r
0004f9c4 g       *ABS*	00000000 __bss_start
00046278 g     F .text	000000dc memset
00040204 g     F .text	0000017c main
0004f9e8 g     O .bss	00000004 alt_envp
0004f9d0 g     O .bss	00000004 __malloc_max_total_mem
0004a418 g     F .text	00000060 altera_avalon_jtag_uart_write_fd
00047af8 g     F .text	00000008 __sclose
00067100 g       *ABS*	00000000 __alt_heap_limit
00047e6c g     F .text	00000014 fclose
0004fb20 g     O .bss	00000190 _atexit0
00042ffc g     F .text	0000161c _dtoa_r
000457dc g     F .text	00000784 _malloc_r
0004df58 g     O .rwdata	00000004 alt_errno
000453f8 g     F .text	000000a8 _fwalk
00049768 g     F .text	00000050 __divsi3
0004c1f4 g     O .rodata	00000014 __thenan_df
00044b08 g     F .text	0000013c _malloc_trim_r
0004c1ac g       *ABS*	00000000 __CTOR_END__
00047b00 g     F .text	000000a4 strcmp
0004c1ac g       *ABS*	00000000 __flash_rodata_start
0004c1ac g       *ABS*	00000000 __DTOR_LIST__
000492c0 g     F .text	0000005c __nedf2
0004a33c g     F .text	00000034 alt_irq_init
0004a088 g     F .text	00000060 alt_release_fd
0004c208 g     O .rodata	00000100 __clz_tab
0004f9c4 g     O .bss	00000004 _PathLocale
0004bdd8 g     F .text	00000014 atexit
00047ba4 g     F .text	0000006c _write_r
0004560c g     F .text	0000001c setlocale
0004df34 g     O .rwdata	00000004 _impure_ptr
0004f9e0 g     O .bss	00000004 alt_argc
0004b23c g     F .text	0000005c _do_dtors
00040020 g       .exceptions	00000000 alt_irq_entry
00046df8 g     F .text	00000060 __ulp
000478f8 g     F .text	00000038 __isinfd
00044af0 g     F .text	00000018 __fp_unlock_all
0004df44 g     O .rwdata	00000008 alt_fs_list
00040020 g       *ABS*	00000000 __ram_exceptions_start
00045628 g     F .text	0000000c localeconv
00040000 g       *ABS*	00000000 __alt_mem_onchip_memory2
0004b2c8 g     F .text	00000050 alt_ic_isr_register
0004df6c g       *ABS*	00000000 _edata
0004fcb0 g       *ABS*	00000000 _end
000401b8 g       *ABS*	00000000 __ram_exceptions_end
0004a8ec g     F .text	000000f4 altera_avalon_jtag_uart_ioctl
0004b3b4 g     F .text	000000a0 alt_ic_irq_disable
00047a14 g     F .text	00000088 __swrite
0004df40 g     O .rwdata	00000004 __malloc_trim_threshold
0004bad4 g     F .text	00000020 altera_nios2_qsys_irq_init
0004bdec g     F .text	00000038 exit
000454a0 g     F .text	000000b8 _fwalk_reent
00046c50 g     F .text	000001a8 __mdiff
000497b8 g     F .text	0000005c __modsi3
00067100 g       *ABS*	00000000 __alt_data_end
00040020 g     F .exceptions	00000000 alt_exception
00044acc g     F .text	00000004 __sfp_lock_release
0004c170 g     F .text	0000003c _exit
00047930 g     F .text	0000002c __isnand
0004ae18 g     F .text	00000140 alt_alarm_start
00049824 g     F .text	00000060 __muldi3
00045634 g     F .text	000001a8 __smakebuf_r
00040da4 g     F .text	0000008c strlen
0004b7e4 g     F .text	00000154 open
00049380 g     F .text	00000064 __gedf2
0004b298 g     F .text	00000030 alt_icache_flush_all
0004df60 g     O .rwdata	00000004 alt_priority_mask
0004b318 g     F .text	0000009c alt_ic_irq_enable
00042c5c g     F .text	00000024 __vfprintf_internal
00048f20 g     F .text	00000060 __subdf3
000466a4 g     F .text	000000b0 __lo0bits
0004df64 g     O .rwdata	00000008 alt_alarm_list
0004b1e0 g     F .text	0000005c _do_ctors
000499a4 g     F .text	000000c8 close
00049cf0 g     F .text	00000080 alt_load
000408f4 g     F .text	00000224 __pack_d
00000000  w      *UND*	00000000 free
00044ad0 g     F .text	00000004 __sinit_lock_acquire
00046424 g     F .text	00000114 __multadd
000463fc g     F .text	00000028 _Bfree



Disassembly of section .entry:

00040000 <__reset>:
#if NIOS2_ICACHE_SIZE > 0 && defined(ALT_ALLOW_CODE_AT_RESET) && !defined(ALT_SIM_OPTIMIZE)
    /* Assume the instruction cache size is always a power of two. */
#if NIOS2_ICACHE_SIZE > 0x8000
    movhi r2, %hi(NIOS2_ICACHE_SIZE)
#else
    movui r2, NIOS2_ICACHE_SIZE
   40000:	00840014 	movui	r2,4096
#endif

0:
    initi r2
   40004:	1001483a 	initi	r2
    addi r2, r2, -NIOS2_ICACHE_LINE_SIZE
   40008:	10bff804 	addi	r2,r2,-32
    bgt r2, zero, 0b
   4000c:	00bffd16 	blt	zero,r2,40004 <__alt_data_end+0xfffd8f04>
 * Jump to the _start entry point in the .text section if reset code
 * is allowed or if optimizing for RTL simulation.
 */
#if defined(ALT_ALLOW_CODE_AT_RESET) || defined(ALT_SIM_OPTIMIZE)
    /* Jump to the _start entry point in the .text section. */
    movhi r1, %hi(_start)
   40010:	00400134 	movhi	at,4
    ori r1, r1, %lo(_start)
   40014:	08406e14 	ori	at,at,440
    jmp r1
   40018:	0800683a 	jmp	at
   4001c:	00000000 	call	0 <__reset-0x40000>

Disassembly of section .exceptions:

00040020 <alt_exception>:

#else /* ALT_EXCEPTION_STACK disabled */
        /* 
         * Reserve space on normal stack for registers about to be pushed.
         */
        addi  sp, sp, -76
   40020:	deffed04 	addi	sp,sp,-76
         * documentation for details).
         *
         * Leave a gap in the stack frame at 4(sp) for the muldiv handler to
         * store zero into.
         */
        stw   ra,  0(sp)
   40024:	dfc00015 	stw	ra,0(sp)
        stw   r1,   8(sp)
   40028:	d8400215 	stw	at,8(sp)
        stw   r2,  12(sp)
   4002c:	d8800315 	stw	r2,12(sp)
        stw   r3,  16(sp)
   40030:	d8c00415 	stw	r3,16(sp)
        stw   r4,  20(sp)
   40034:	d9000515 	stw	r4,20(sp)
        stw   r5,  24(sp)
   40038:	d9400615 	stw	r5,24(sp)
        stw   r6,  28(sp)
   4003c:	d9800715 	stw	r6,28(sp)
        stw   r7,  32(sp)
   40040:	d9c00815 	stw	r7,32(sp)
        rdctl r5, estatus   /* Read early to avoid usage stall */
   40044:	000b307a 	rdctl	r5,estatus
        stw   r8,  36(sp)
   40048:	da000915 	stw	r8,36(sp)
        stw   r9,  40(sp)
   4004c:	da400a15 	stw	r9,40(sp)
        stw   r10, 44(sp)
   40050:	da800b15 	stw	r10,44(sp)
        stw   r11, 48(sp)
   40054:	dac00c15 	stw	r11,48(sp)
        stw   r12, 52(sp)
   40058:	db000d15 	stw	r12,52(sp)
        stw   r13, 56(sp)
   4005c:	db400e15 	stw	r13,56(sp)
        stw   r14, 60(sp)
   40060:	db800f15 	stw	r14,60(sp)
        stw   r15, 64(sp)
   40064:	dbc01015 	stw	r15,64(sp)
        /*
         * ea-4 contains the address of the instruction being executed
         * when the exception occured. For interrupt exceptions, we will
         * will be re-issue the isntruction. Store it in 72(sp)
         */
        stw   r5,  68(sp)  /* estatus */
   40068:	d9401115 	stw	r5,68(sp)
        addi  r15, ea, -4  /* instruction that caused exception */
   4006c:	ebffff04 	addi	r15,ea,-4
        stw   r15,  72(sp)
   40070:	dbc01215 	stw	r15,72(sp)
#else
        /*
         * Test to see if the exception was a software exception or caused 
         * by an external interrupt, and vector accordingly.
         */
        rdctl r4, ipending
   40074:	0009313a 	rdctl	r4,ipending
        andi  r2, r5, 1
   40078:	2880004c 	andi	r2,r5,1
        beq   r2, zero, .Lnot_irq
   4007c:	10000326 	beq	r2,zero,4008c <alt_exception+0x6c>
        beq   r4, zero, .Lnot_irq
   40080:	20000226 	beq	r4,zero,4008c <alt_exception+0x6c>
        /*
         * Now that all necessary registers have been preserved, call 
         * alt_irq_handler() to process the interrupts.
         */

        call alt_irq_handler
   40084:	00400ec0 	call	400ec <alt_irq_handler>

        .section .exceptions.irqreturn, "xa"

        br    .Lexception_exit
   40088:	00000306 	br	40098 <alt_exception_unknown+0x4>
         * upon completion, so we write ea (address of instruction *after*
         * the one where the exception occured) into 72(sp). The actual
         * instruction that caused the exception is written in r2, which these
         * handlers will utilize.
         */
        stw   ea,  72(sp)  /* Don't re-issue */
   4008c:	df401215 	stw	ea,72(sp)
        ldw   r2, -4(ea)   /* Instruction that caused exception */
   40090:	e8bfff17 	ldw	r2,-4(ea)

00040094 <alt_exception_unknown>:
#ifdef NIOS2_HAS_DEBUG_STUB
       /*
        *  Either tell the user now (if there is a debugger attached) or go into
        *  the debug monitor which will loop until a debugger is attached.
        */
        break
   40094:	003da03a 	break	0
        /* 
         * Restore the saved registers, so that all general purpose registers 
         * have been restored to their state at the time the interrupt occured.
         */

        ldw   r5,  68(sp)
   40098:	d9401117 	ldw	r5,68(sp)
        ldw   ea,  72(sp)  /* This becomes the PC once eret is executed */
   4009c:	df401217 	ldw	ea,72(sp)
        ldw   ra,   0(sp)
   400a0:	dfc00017 	ldw	ra,0(sp)

        wrctl estatus, r5
   400a4:	2801707a 	wrctl	estatus,r5

        ldw   r1,   8(sp)
   400a8:	d8400217 	ldw	at,8(sp)
        ldw   r2,  12(sp)
   400ac:	d8800317 	ldw	r2,12(sp)
        ldw   r3,  16(sp)
   400b0:	d8c00417 	ldw	r3,16(sp)
        ldw   r4,  20(sp)
   400b4:	d9000517 	ldw	r4,20(sp)
        ldw   r5,  24(sp)
   400b8:	d9400617 	ldw	r5,24(sp)
        ldw   r6,  28(sp)
   400bc:	d9800717 	ldw	r6,28(sp)
        ldw   r7,  32(sp)
   400c0:	d9c00817 	ldw	r7,32(sp)

#if defined(ALT_EXCEPTION_STACK) && defined(ALT_STACK_CHECK)
        ldw   et, %gprel(alt_exception_old_stack_limit)(gp)
#endif

        ldw   r8,  36(sp)
   400c4:	da000917 	ldw	r8,36(sp)
        ldw   r9,  40(sp)
   400c8:	da400a17 	ldw	r9,40(sp)
        ldw   r10, 44(sp)
   400cc:	da800b17 	ldw	r10,44(sp)
        ldw   r11, 48(sp)
   400d0:	dac00c17 	ldw	r11,48(sp)
        ldw   r12, 52(sp)
   400d4:	db000d17 	ldw	r12,52(sp)
        ldw   r13, 56(sp)
   400d8:	db400e17 	ldw	r13,56(sp)
        ldw   r14, 60(sp)
   400dc:	db800f17 	ldw	r14,60(sp)
        ldw   r15, 64(sp)
   400e0:	dbc01017 	ldw	r15,64(sp)
        stw   et, %gprel(alt_stack_limit_value)(gp)
        stw   zero, %gprel(alt_exception_old_stack_limit)(gp)
#endif /* ALT_STACK_CHECK */
        ldw   sp,  76(sp)
#else /* ALT_EXCEPTION_STACK disabled */
        addi  sp, sp, 76
   400e4:	dec01304 	addi	sp,sp,76

        /*
         * Return to the interrupted instruction.
         */

        eret
   400e8:	ef80083a 	eret

000400ec <alt_irq_handler>:
 * instruction is present if the macro ALT_CI_INTERRUPT_VECTOR defined.
 */

void alt_irq_handler (void) __attribute__ ((section (".exceptions")));
void alt_irq_handler (void)
{
   400ec:	defff904 	addi	sp,sp,-28
   400f0:	dfc00615 	stw	ra,24(sp)
   400f4:	df000515 	stw	fp,20(sp)
   400f8:	df000504 	addi	fp,sp,20
  
  /*
   * Notify the operating system that we are at interrupt level.
   */ 
  
  ALT_OS_INT_ENTER();
   400fc:	0001883a 	nop
#ifndef NIOS2_EIC_PRESENT
static ALT_INLINE alt_u32 ALT_ALWAYS_INLINE alt_irq_pending (void)
{
  alt_u32 active;

  NIOS2_READ_IPENDING (active);
   40100:	0005313a 	rdctl	r2,ipending
   40104:	e0bffe15 	stw	r2,-8(fp)

  return active;
   40108:	e0bffe17 	ldw	r2,-8(fp)
   * Consider the case where the high priority interupt is asserted during
   * the interrupt entry sequence for a lower priority interrupt to see why
   * this is the case.
   */

  active = alt_irq_pending ();
   4010c:	e0bffb15 	stw	r2,-20(fp)

  do
  {
    i = 0;
   40110:	e03ffd15 	stw	zero,-12(fp)
    mask = 1;
   40114:	00800044 	movi	r2,1
   40118:	e0bffc15 	stw	r2,-16(fp)
     * called to clear the interrupt condition.
     */

    do
    {
      if (active & mask)
   4011c:	e0fffb17 	ldw	r3,-20(fp)
   40120:	e0bffc17 	ldw	r2,-16(fp)
   40124:	1884703a 	and	r2,r3,r2
   40128:	10001726 	beq	r2,zero,40188 <alt_irq_handler+0x9c>
      { 
#ifdef ALT_ENHANCED_INTERRUPT_API_PRESENT
        alt_irq[i].handler(alt_irq[i].context); 
   4012c:	00c00174 	movhi	r3,5
   40130:	18fe8804 	addi	r3,r3,-1504
   40134:	e0bffd17 	ldw	r2,-12(fp)
   40138:	100490fa 	slli	r2,r2,3
   4013c:	1885883a 	add	r2,r3,r2
   40140:	10c00017 	ldw	r3,0(r2)
   40144:	01000174 	movhi	r4,5
   40148:	213e8804 	addi	r4,r4,-1504
   4014c:	e0bffd17 	ldw	r2,-12(fp)
   40150:	100490fa 	slli	r2,r2,3
   40154:	2085883a 	add	r2,r4,r2
   40158:	10800104 	addi	r2,r2,4
   4015c:	10800017 	ldw	r2,0(r2)
   40160:	1009883a 	mov	r4,r2
   40164:	183ee83a 	callr	r3
#else
        alt_irq[i].handler(alt_irq[i].context, i); 
#endif
        break;
   40168:	0001883a 	nop
#ifndef NIOS2_EIC_PRESENT
static ALT_INLINE alt_u32 ALT_ALWAYS_INLINE alt_irq_pending (void)
{
  alt_u32 active;

  NIOS2_READ_IPENDING (active);
   4016c:	0005313a 	rdctl	r2,ipending
   40170:	e0bfff15 	stw	r2,-4(fp)

  return active;
   40174:	e0bfff17 	ldw	r2,-4(fp)
      mask <<= 1;
      i++;

    } while (1);

    active = alt_irq_pending ();
   40178:	e0bffb15 	stw	r2,-20(fp)
    
  } while (active);
   4017c:	e0bffb17 	ldw	r2,-20(fp)
   40180:	103fe31e 	bne	r2,zero,40110 <__alt_data_end+0xfffd9010>

  /*
   * Notify the operating system that interrupt processing is complete.
   */ 

  ALT_OS_INT_EXIT();
   40184:	00000706 	br	401a4 <alt_irq_handler+0xb8>
#else
        alt_irq[i].handler(alt_irq[i].context, i); 
#endif
        break;
      }
      mask <<= 1;
   40188:	e0bffc17 	ldw	r2,-16(fp)
   4018c:	1085883a 	add	r2,r2,r2
   40190:	e0bffc15 	stw	r2,-16(fp)
      i++;
   40194:	e0bffd17 	ldw	r2,-12(fp)
   40198:	10800044 	addi	r2,r2,1
   4019c:	e0bffd15 	stw	r2,-12(fp)

    } while (1);
   401a0:	003fde06 	br	4011c <__alt_data_end+0xfffd901c>
  /*
   * Notify the operating system that interrupt processing is complete.
   */ 

  ALT_OS_INT_EXIT();
}
   401a4:	e037883a 	mov	sp,fp
   401a8:	dfc00117 	ldw	ra,4(sp)
   401ac:	df000017 	ldw	fp,0(sp)
   401b0:	dec00204 	addi	sp,sp,8
   401b4:	f800283a 	ret

Disassembly of section .text:

000401b8 <_start>:

    /* Assume the data cache size is always a power of two. */
#if NIOS2_DCACHE_SIZE > 0x8000
    movhi r2, %hi(NIOS2_DCACHE_SIZE)
#else
    movui r2, NIOS2_DCACHE_SIZE
   401b8:	00820014 	movui	r2,2048
#endif

0:
    initd 0(r2)
   401bc:	10000033 	initd	0(r2)
#ifdef NIOS2_ECC_PRESENT
    addi r2, r2, -4
#else
    addi r2, r2, -NIOS2_DCACHE_LINE_SIZE
   401c0:	10bff804 	addi	r2,r2,-32
#endif
    bgt r2, zero, 0b
   401c4:	00bffd16 	blt	zero,r2,401bc <__alt_data_end+0xfffd90bc>

    /*
     * Now that the caches are initialized, set up the stack pointer and global pointer.
     * The values provided by the linker are assumed to be correctly aligned.
     */
    movhi sp, %hi(__alt_stack_pointer)
   401c8:	06c001b4 	movhi	sp,6
    ori sp, sp, %lo(__alt_stack_pointer)
   401cc:	dedc4014 	ori	sp,sp,28928
    movhi gp, %hi(_gp)
   401d0:	06800174 	movhi	gp,5
    ori gp, gp, %lo(_gp)
   401d4:	d697cc14 	ori	gp,gp,24368
 */
#ifndef ALT_SIM_OPTIMIZE
    /* Log that the BSS is about to be cleared. */
    ALT_LOG_PUTS(alt_log_msg_bss)

    movhi r2, %hi(__bss_start)
   401d8:	00800134 	movhi	r2,4
    ori r2, r2, %lo(__bss_start)
   401dc:	10be7114 	ori	r2,r2,63940

    movhi r3, %hi(__bss_end)
   401e0:	00c00134 	movhi	r3,4
    ori r3, r3, %lo(__bss_end)
   401e4:	18ff2c14 	ori	r3,r3,64688

    beq r2, r3, 1f
   401e8:	10c00326 	beq	r2,r3,401f8 <_start+0x40>

0:
    stw zero, (r2)
   401ec:	10000015 	stw	zero,0(r2)
    addi r2, r2, 4
   401f0:	10800104 	addi	r2,r2,4
    bltu r2, r3, 0b
   401f4:	10fffd36 	bltu	r2,r3,401ec <__alt_data_end+0xfffd90ec>
     * section aren't defined until alt_load() has been called).
     */
    mov   et, zero
#endif

    call alt_load
   401f8:	0049cf00 	call	49cf0 <alt_load>

    /* Log that alt_main is about to be called. */
    ALT_LOG_PUTS(alt_log_msg_alt_main)

    /* Call the C entry point. It should never return. */
    call alt_main
   401fc:	0049e900 	call	49e90 <alt_main>

00040200 <alt_after_alt_main>:

    /* Wait in infinite loop in case alt_main does return. */
alt_after_alt_main:
    br alt_after_alt_main
   40200:	003fff06 	br	40200 <__alt_data_end+0xfffd9100>

00040204 <main>:
#include <io.h>
#include <unistd.h>

#include "system.h"

void main(void){
   40204:	defff804 	addi	sp,sp,-32
   40208:	dfc00715 	stw	ra,28(sp)
   4020c:	df000615 	stw	fp,24(sp)
   40210:	df000604 	addi	fp,sp,24
	int ch = 0;
   40214:	e03ffd15 	stw	zero,-12(fp)
	const int nReadNum = 10; // max 1024
   40218:	00800284 	movi	r2,10
   4021c:	e0bffe15 	stw	r2,-8(fp)
	int i, Value, nIndex=0;
   40220:	e03ffc15 	stw	zero,-16(fp)

	printf("ADC Demo\r\n");
   40224:	01000174 	movhi	r4,5
   40228:	21306b04 	addi	r4,r4,-15956
   4022c:	0040d900 	call	40d90 <puts>
	while(1){
		ch = IORD(SW_BASE, 0x00) & 0x07;
   40230:	0005883a 	mov	r2,zero
   40234:	10800037 	ldwio	r2,0(r2)
   40238:	108001cc 	andi	r2,r2,7
   4023c:	e0bffd15 	stw	r2,-12(fp)

		printf("======================= %d, ch=%d\r\n", nIndex++, ch);
   40240:	e0bffc17 	ldw	r2,-16(fp)
   40244:	e0fffc17 	ldw	r3,-16(fp)
   40248:	18c00044 	addi	r3,r3,1
   4024c:	e0fffc15 	stw	r3,-16(fp)
   40250:	01000174 	movhi	r4,5
   40254:	21306e04 	addi	r4,r4,-15944
   40258:	100b883a 	mov	r5,r2
   4025c:	e1bffd17 	ldw	r6,-12(fp)
   40260:	0040cd00 	call	40cd0 <printf>
		// set measure number for ADC convert
		IOWR(ADC_LTC2308_BASE, 0x01, nReadNum);
   40264:	00800234 	movhi	r2,8
   40268:	10840504 	addi	r2,r2,4116
   4026c:	e0fffe17 	ldw	r3,-8(fp)
   40270:	10c00035 	stwio	r3,0(r2)


		// start measure
		IOWR(ADC_LTC2308_BASE, 0x00, (ch << 1) | 0x00);
   40274:	e0bffd17 	ldw	r2,-12(fp)
   40278:	1085883a 	add	r2,r2,r2
   4027c:	1007883a 	mov	r3,r2
   40280:	00800234 	movhi	r2,8
   40284:	10840404 	addi	r2,r2,4112
   40288:	10c00035 	stwio	r3,0(r2)
		IOWR(ADC_LTC2308_BASE, 0x00, (ch << 1) | 0x01);
   4028c:	e0bffd17 	ldw	r2,-12(fp)
   40290:	1085883a 	add	r2,r2,r2
   40294:	10c00054 	ori	r3,r2,1
   40298:	00800234 	movhi	r2,8
   4029c:	10840404 	addi	r2,r2,4112
   402a0:	10c00035 	stwio	r3,0(r2)
		IOWR(ADC_LTC2308_BASE, 0x00, (ch << 1) | 0x00);
   402a4:	e0bffd17 	ldw	r2,-12(fp)
   402a8:	1085883a 	add	r2,r2,r2
   402ac:	1007883a 	mov	r3,r2
   402b0:	00800234 	movhi	r2,8
   402b4:	10840404 	addi	r2,r2,4112
   402b8:	10c00035 	stwio	r3,0(r2)
		usleep(1);
   402bc:	01000044 	movi	r4,1
   402c0:	004a1980 	call	4a198 <usleep>

		// wait measure done
		while ((IORD(ADC_LTC2308_BASE,0x00) & 0x01) == 0x00);
   402c4:	0001883a 	nop
   402c8:	00800234 	movhi	r2,8
   402cc:	10840404 	addi	r2,r2,4112
   402d0:	10800037 	ldwio	r2,0(r2)
   402d4:	1080004c 	andi	r2,r2,1
   402d8:	103ffb26 	beq	r2,zero,402c8 <__alt_data_end+0xfffd91c8>

		// read adc value
		for(i=0;i<nReadNum;i++){
   402dc:	e03ffb15 	stw	zero,-20(fp)
   402e0:	00002006 	br	40364 <main+0x160>
			Value = IORD(ADC_LTC2308_BASE, 0x01);
   402e4:	00800234 	movhi	r2,8
   402e8:	10840504 	addi	r2,r2,4116
   402ec:	10800037 	ldwio	r2,0(r2)
   402f0:	e0bfff15 	stw	r2,-4(fp)
			printf("CH%d=%.3fV (0x%04x)\r\n", ch, (float)Value/1000.0, Value);
   402f4:	e13fff17 	ldw	r4,-4(fp)
   402f8:	00403800 	call	40380 <__floatsisf>
   402fc:	1007883a 	mov	r3,r2
   40300:	1809883a 	mov	r4,r3
   40304:	00404240 	call	40424 <__extendsfdf2>
   40308:	100b883a 	mov	r5,r2
   4030c:	180d883a 	mov	r6,r3
   40310:	2809883a 	mov	r4,r5
   40314:	300b883a 	mov	r5,r6
   40318:	000d883a 	mov	r6,zero
   4031c:	01d023f4 	movhi	r7,16527
   40320:	39d00004 	addi	r7,r7,16384
   40324:	00404680 	call	40468 <__divdf3>
   40328:	1009883a 	mov	r4,r2
   4032c:	180b883a 	mov	r5,r3
   40330:	2005883a 	mov	r2,r4
   40334:	2807883a 	mov	r3,r5
   40338:	e13fff17 	ldw	r4,-4(fp)
   4033c:	d9000015 	stw	r4,0(sp)
   40340:	01000174 	movhi	r4,5
   40344:	21307704 	addi	r4,r4,-15908
   40348:	e17ffd17 	ldw	r5,-12(fp)
   4034c:	100d883a 	mov	r6,r2
   40350:	180f883a 	mov	r7,r3
   40354:	0040cd00 	call	40cd0 <printf>

		// wait measure done
		while ((IORD(ADC_LTC2308_BASE,0x00) & 0x01) == 0x00);

		// read adc value
		for(i=0;i<nReadNum;i++){
   40358:	e0bffb17 	ldw	r2,-20(fp)
   4035c:	10800044 	addi	r2,r2,1
   40360:	e0bffb15 	stw	r2,-20(fp)
   40364:	e0fffb17 	ldw	r3,-20(fp)
   40368:	e0bffe17 	ldw	r2,-8(fp)
   4036c:	18bfdd16 	blt	r3,r2,402e4 <__alt_data_end+0xfffd91e4>
			Value = IORD(ADC_LTC2308_BASE, 0x01);
			printf("CH%d=%.3fV (0x%04x)\r\n", ch, (float)Value/1000.0, Value);
		}

		usleep(200*1000);
   40370:	010000f4 	movhi	r4,3
   40374:	21035004 	addi	r4,r4,3392
   40378:	004a1980 	call	4a198 <usleep>
	} // while
   4037c:	003fac06 	br	40230 <__alt_data_end+0xfffd9130>

00040380 <__floatsisf>:
   40380:	2004d7fa 	srli	r2,r4,31
   40384:	defffa04 	addi	sp,sp,-24
   40388:	00c000c4 	movi	r3,3
   4038c:	dfc00515 	stw	ra,20(sp)
   40390:	dc000415 	stw	r16,16(sp)
   40394:	d8c00015 	stw	r3,0(sp)
   40398:	d8800115 	stw	r2,4(sp)
   4039c:	2000081e 	bne	r4,zero,403c0 <__floatsisf+0x40>
   403a0:	00800084 	movi	r2,2
   403a4:	d8800015 	stw	r2,0(sp)
   403a8:	d809883a 	mov	r4,sp
   403ac:	00407000 	call	40700 <__pack_f>
   403b0:	dfc00517 	ldw	ra,20(sp)
   403b4:	dc000417 	ldw	r16,16(sp)
   403b8:	dec00604 	addi	sp,sp,24
   403bc:	f800283a 	ret
   403c0:	00c00784 	movi	r3,30
   403c4:	d8c00215 	stw	r3,8(sp)
   403c8:	10000b1e 	bne	r2,zero,403f8 <__floatsisf+0x78>
   403cc:	2021883a 	mov	r16,r4
   403d0:	8009883a 	mov	r4,r16
   403d4:	00406540 	call	40654 <__clzsi2>
   403d8:	113fffc4 	addi	r4,r2,-1
   403dc:	01000d0e 	bge	zero,r4,40414 <__floatsisf+0x94>
   403e0:	8108983a 	sll	r4,r16,r4
   403e4:	00c007c4 	movi	r3,31
   403e8:	1885c83a 	sub	r2,r3,r2
   403ec:	d9000315 	stw	r4,12(sp)
   403f0:	d8800215 	stw	r2,8(sp)
   403f4:	003fec06 	br	403a8 <__alt_data_end+0xfffd92a8>
   403f8:	00a00034 	movhi	r2,32768
   403fc:	20800726 	beq	r4,r2,4041c <__floatsisf+0x9c>
   40400:	0121c83a 	sub	r16,zero,r4
   40404:	8009883a 	mov	r4,r16
   40408:	00406540 	call	40654 <__clzsi2>
   4040c:	113fffc4 	addi	r4,r2,-1
   40410:	013ff316 	blt	zero,r4,403e0 <__alt_data_end+0xfffd92e0>
   40414:	dc000315 	stw	r16,12(sp)
   40418:	003fe306 	br	403a8 <__alt_data_end+0xfffd92a8>
   4041c:	00b3c034 	movhi	r2,52992
   40420:	003fe306 	br	403b0 <__alt_data_end+0xfffd92b0>

00040424 <__extendsfdf2>:
   40424:	defff904 	addi	sp,sp,-28
   40428:	d9000515 	stw	r4,20(sp)
   4042c:	d9400104 	addi	r5,sp,4
   40430:	d9000504 	addi	r4,sp,20
   40434:	dfc00615 	stw	ra,24(sp)
   40438:	004082c0 	call	4082c <__unpack_f>
   4043c:	d9c00417 	ldw	r7,16(sp)
   40440:	d9000117 	ldw	r4,4(sp)
   40444:	d9400217 	ldw	r5,8(sp)
   40448:	3804d0ba 	srli	r2,r7,2
   4044c:	d9800317 	ldw	r6,12(sp)
   40450:	380e97ba 	slli	r7,r7,30
   40454:	d8800015 	stw	r2,0(sp)
   40458:	004061c0 	call	4061c <__make_dp>
   4045c:	dfc00617 	ldw	ra,24(sp)
   40460:	dec00704 	addi	sp,sp,28
   40464:	f800283a 	ret

00040468 <__divdf3>:
   40468:	defff104 	addi	sp,sp,-60
   4046c:	d9000c15 	stw	r4,48(sp)
   40470:	d9400d15 	stw	r5,52(sp)
   40474:	d9000c04 	addi	r4,sp,48
   40478:	d9400504 	addi	r5,sp,20
   4047c:	dfc00e15 	stw	ra,56(sp)
   40480:	d9800a15 	stw	r6,40(sp)
   40484:	d9c00b15 	stw	r7,44(sp)
   40488:	0040b180 	call	40b18 <__unpack_d>
   4048c:	d9000a04 	addi	r4,sp,40
   40490:	d80b883a 	mov	r5,sp
   40494:	0040b180 	call	40b18 <__unpack_d>
   40498:	d8c00517 	ldw	r3,20(sp)
   4049c:	00800044 	movi	r2,1
   404a0:	10c00536 	bltu	r2,r3,404b8 <__divdf3+0x50>
   404a4:	d9000504 	addi	r4,sp,20
   404a8:	00408f40 	call	408f4 <__pack_d>
   404ac:	dfc00e17 	ldw	ra,56(sp)
   404b0:	dec00f04 	addi	sp,sp,60
   404b4:	f800283a 	ret
   404b8:	d9000017 	ldw	r4,0(sp)
   404bc:	11000536 	bltu	r2,r4,404d4 <__divdf3+0x6c>
   404c0:	d809883a 	mov	r4,sp
   404c4:	00408f40 	call	408f4 <__pack_d>
   404c8:	dfc00e17 	ldw	ra,56(sp)
   404cc:	dec00f04 	addi	sp,sp,60
   404d0:	f800283a 	ret
   404d4:	d9800617 	ldw	r6,24(sp)
   404d8:	d9400117 	ldw	r5,4(sp)
   404dc:	00800104 	movi	r2,4
   404e0:	314af03a 	xor	r5,r6,r5
   404e4:	d9400615 	stw	r5,24(sp)
   404e8:	18800226 	beq	r3,r2,404f4 <__divdf3+0x8c>
   404ec:	01400084 	movi	r5,2
   404f0:	1940041e 	bne	r3,r5,40504 <__divdf3+0x9c>
   404f4:	193feb1e 	bne	r3,r4,404a4 <__alt_data_end+0xfffd93a4>
   404f8:	01000174 	movhi	r4,5
   404fc:	21307d04 	addi	r4,r4,-15884
   40500:	003fe906 	br	404a8 <__alt_data_end+0xfffd93a8>
   40504:	20803326 	beq	r4,r2,405d4 <__divdf3+0x16c>
   40508:	21403726 	beq	r4,r5,405e8 <__divdf3+0x180>
   4050c:	d8800217 	ldw	r2,8(sp)
   40510:	d9000717 	ldw	r4,28(sp)
   40514:	d8c00917 	ldw	r3,36(sp)
   40518:	da000417 	ldw	r8,16(sp)
   4051c:	2089c83a 	sub	r4,r4,r2
   40520:	d9000715 	stw	r4,28(sp)
   40524:	d8800817 	ldw	r2,32(sp)
   40528:	dbc00317 	ldw	r15,12(sp)
   4052c:	1a000236 	bltu	r3,r8,40538 <__divdf3+0xd0>
   40530:	40c0081e 	bne	r8,r3,40554 <__divdf3+0xec>
   40534:	13c0072e 	bgeu	r2,r15,40554 <__divdf3+0xec>
   40538:	108b883a 	add	r5,r2,r2
   4053c:	288d803a 	cmpltu	r6,r5,r2
   40540:	18c7883a 	add	r3,r3,r3
   40544:	213fffc4 	addi	r4,r4,-1
   40548:	2805883a 	mov	r2,r5
   4054c:	30c7883a 	add	r3,r6,r3
   40550:	d9000715 	stw	r4,28(sp)
   40554:	01400f44 	movi	r5,61
   40558:	000f883a 	mov	r7,zero
   4055c:	01040034 	movhi	r4,4096
   40560:	0019883a 	mov	r12,zero
   40564:	001b883a 	mov	r13,zero
   40568:	201697fa 	slli	r11,r4,31
   4056c:	3814d07a 	srli	r10,r7,1
   40570:	297fffc4 	addi	r5,r5,-1
   40574:	1a000936 	bltu	r3,r8,4059c <__divdf3+0x134>
   40578:	13cdc83a 	sub	r6,r2,r15
   4057c:	1193803a 	cmpltu	r9,r2,r6
   40580:	1a1dc83a 	sub	r14,r3,r8
   40584:	40c0011e 	bne	r8,r3,4058c <__divdf3+0x124>
   40588:	13c00436 	bltu	r2,r15,4059c <__divdf3+0x134>
   4058c:	3005883a 	mov	r2,r6
   40590:	7247c83a 	sub	r3,r14,r9
   40594:	61d8b03a 	or	r12,r12,r7
   40598:	691ab03a 	or	r13,r13,r4
   4059c:	108d883a 	add	r6,r2,r2
   405a0:	3093803a 	cmpltu	r9,r6,r2
   405a4:	18c7883a 	add	r3,r3,r3
   405a8:	5a8eb03a 	or	r7,r11,r10
   405ac:	2008d07a 	srli	r4,r4,1
   405b0:	3005883a 	mov	r2,r6
   405b4:	48c7883a 	add	r3,r9,r3
   405b8:	283feb1e 	bne	r5,zero,40568 <__alt_data_end+0xfffd9468>
   405bc:	61003fcc 	andi	r4,r12,255
   405c0:	01402004 	movi	r5,128
   405c4:	21400b26 	beq	r4,r5,405f4 <__divdf3+0x18c>
   405c8:	db000815 	stw	r12,32(sp)
   405cc:	db400915 	stw	r13,36(sp)
   405d0:	003fb406 	br	404a4 <__alt_data_end+0xfffd93a4>
   405d4:	d8000815 	stw	zero,32(sp)
   405d8:	d8000915 	stw	zero,36(sp)
   405dc:	d8000715 	stw	zero,28(sp)
   405e0:	d9000504 	addi	r4,sp,20
   405e4:	003fb006 	br	404a8 <__alt_data_end+0xfffd93a8>
   405e8:	d8800515 	stw	r2,20(sp)
   405ec:	d9000504 	addi	r4,sp,20
   405f0:	003fad06 	br	404a8 <__alt_data_end+0xfffd93a8>
   405f4:	6140400c 	andi	r5,r12,256
   405f8:	283ff31e 	bne	r5,zero,405c8 <__alt_data_end+0xfffd94c8>
   405fc:	30c4b03a 	or	r2,r6,r3
   40600:	103ff126 	beq	r2,zero,405c8 <__alt_data_end+0xfffd94c8>
   40604:	6109883a 	add	r4,r12,r4
   40608:	2305803a 	cmpltu	r2,r4,r12
   4060c:	033fc004 	movi	r12,-256
   40610:	2318703a 	and	r12,r4,r12
   40614:	135b883a 	add	r13,r2,r13
   40618:	003feb06 	br	405c8 <__alt_data_end+0xfffd94c8>

0004061c <__make_dp>:
   4061c:	defff904 	addi	sp,sp,-28
   40620:	d8800717 	ldw	r2,28(sp)
   40624:	d9000015 	stw	r4,0(sp)
   40628:	d809883a 	mov	r4,sp
   4062c:	dfc00515 	stw	ra,20(sp)
   40630:	d9c00615 	stw	r7,24(sp)
   40634:	d9400115 	stw	r5,4(sp)
   40638:	d9800215 	stw	r6,8(sp)
   4063c:	d9c00315 	stw	r7,12(sp)
   40640:	d8800415 	stw	r2,16(sp)
   40644:	00408f40 	call	408f4 <__pack_d>
   40648:	dfc00517 	ldw	ra,20(sp)
   4064c:	dec00704 	addi	sp,sp,28
   40650:	f800283a 	ret

00040654 <__clzsi2>:
   40654:	00bfffd4 	movui	r2,65535
   40658:	11000b36 	bltu	r2,r4,40688 <__clzsi2+0x34>
   4065c:	00803fc4 	movi	r2,255
   40660:	11001e2e 	bgeu	r2,r4,406dc <__clzsi2+0x88>
   40664:	00c00204 	movi	r3,8
   40668:	20c8d83a 	srl	r4,r4,r3
   4066c:	00c00174 	movhi	r3,5
   40670:	18f08204 	addi	r3,r3,-15864
   40674:	00800604 	movi	r2,24
   40678:	1909883a 	add	r4,r3,r4
   4067c:	20c00003 	ldbu	r3,0(r4)
   40680:	10c5c83a 	sub	r2,r2,r3
   40684:	f800283a 	ret
   40688:	00804034 	movhi	r2,256
   4068c:	10bfffc4 	addi	r2,r2,-1
   40690:	11000936 	bltu	r2,r4,406b8 <__clzsi2+0x64>
   40694:	00800404 	movi	r2,16
   40698:	1007883a 	mov	r3,r2
   4069c:	20c8d83a 	srl	r4,r4,r3
   406a0:	00c00174 	movhi	r3,5
   406a4:	18f08204 	addi	r3,r3,-15864
   406a8:	1909883a 	add	r4,r3,r4
   406ac:	20c00003 	ldbu	r3,0(r4)
   406b0:	10c5c83a 	sub	r2,r2,r3
   406b4:	f800283a 	ret
   406b8:	00c00604 	movi	r3,24
   406bc:	20c8d83a 	srl	r4,r4,r3
   406c0:	00c00174 	movhi	r3,5
   406c4:	18f08204 	addi	r3,r3,-15864
   406c8:	00800204 	movi	r2,8
   406cc:	1909883a 	add	r4,r3,r4
   406d0:	20c00003 	ldbu	r3,0(r4)
   406d4:	10c5c83a 	sub	r2,r2,r3
   406d8:	f800283a 	ret
   406dc:	0007883a 	mov	r3,zero
   406e0:	20c8d83a 	srl	r4,r4,r3
   406e4:	00c00174 	movhi	r3,5
   406e8:	18f08204 	addi	r3,r3,-15864
   406ec:	00800804 	movi	r2,32
   406f0:	1909883a 	add	r4,r3,r4
   406f4:	20c00003 	ldbu	r3,0(r4)
   406f8:	10c5c83a 	sub	r2,r2,r3
   406fc:	f800283a 	ret

00040700 <__pack_f>:
   40700:	21400017 	ldw	r5,0(r4)
   40704:	01800044 	movi	r6,1
   40708:	20c00317 	ldw	r3,12(r4)
   4070c:	21c00117 	ldw	r7,4(r4)
   40710:	3140282e 	bgeu	r6,r5,407b4 <__pack_f+0xb4>
   40714:	00800104 	movi	r2,4
   40718:	28802326 	beq	r5,r2,407a8 <__pack_f+0xa8>
   4071c:	00800084 	movi	r2,2
   40720:	28800f26 	beq	r5,r2,40760 <__pack_f+0x60>
   40724:	18000e26 	beq	r3,zero,40760 <__pack_f+0x60>
   40728:	21000217 	ldw	r4,8(r4)
   4072c:	00bfe084 	movi	r2,-126
   40730:	20802616 	blt	r4,r2,407cc <__pack_f+0xcc>
   40734:	00801fc4 	movi	r2,127
   40738:	11001b16 	blt	r2,r4,407a8 <__pack_f+0xa8>
   4073c:	188a703a 	and	r5,r3,r2
   40740:	00801004 	movi	r2,64
   40744:	28801126 	beq	r5,r2,4078c <__pack_f+0x8c>
   40748:	18c00fc4 	addi	r3,r3,63
   4074c:	18001316 	blt	r3,zero,4079c <__pack_f+0x9c>
   40750:	21001fc4 	addi	r4,r4,127
   40754:	180690ba 	slli	r3,r3,2
   40758:	1806d27a 	srli	r3,r3,9
   4075c:	00000206 	br	40768 <__pack_f+0x68>
   40760:	0009883a 	mov	r4,zero
   40764:	0007883a 	mov	r3,zero
   40768:	21003fcc 	andi	r4,r4,255
   4076c:	200895fa 	slli	r4,r4,23
   40770:	380a97fa 	slli	r5,r7,31
   40774:	00802034 	movhi	r2,128
   40778:	10bfffc4 	addi	r2,r2,-1
   4077c:	1886703a 	and	r3,r3,r2
   40780:	1904b03a 	or	r2,r3,r4
   40784:	1144b03a 	or	r2,r2,r5
   40788:	f800283a 	ret
   4078c:	1880200c 	andi	r2,r3,128
   40790:	103fee26 	beq	r2,zero,4074c <__alt_data_end+0xfffd964c>
   40794:	18c01004 	addi	r3,r3,64
   40798:	183fed0e 	bge	r3,zero,40750 <__alt_data_end+0xfffd9650>
   4079c:	1806d07a 	srli	r3,r3,1
   407a0:	21002004 	addi	r4,r4,128
   407a4:	003feb06 	br	40754 <__alt_data_end+0xfffd9654>
   407a8:	013fffc4 	movi	r4,-1
   407ac:	0007883a 	mov	r3,zero
   407b0:	003fed06 	br	40768 <__alt_data_end+0xfffd9668>
   407b4:	18c00434 	orhi	r3,r3,16
   407b8:	00802034 	movhi	r2,128
   407bc:	10bfffc4 	addi	r2,r2,-1
   407c0:	1886703a 	and	r3,r3,r2
   407c4:	013fffc4 	movi	r4,-1
   407c8:	003fe706 	br	40768 <__alt_data_end+0xfffd9668>
   407cc:	1105c83a 	sub	r2,r2,r4
   407d0:	01000644 	movi	r4,25
   407d4:	20801216 	blt	r4,r2,40820 <__pack_f+0x120>
   407d8:	3088983a 	sll	r4,r6,r2
   407dc:	1884d83a 	srl	r2,r3,r2
   407e0:	213fffc4 	addi	r4,r4,-1
   407e4:	20c6703a 	and	r3,r4,r3
   407e8:	1806c03a 	cmpne	r3,r3,zero
   407ec:	1884b03a 	or	r2,r3,r2
   407f0:	11001fcc 	andi	r4,r2,127
   407f4:	00c01004 	movi	r3,64
   407f8:	20c00a1e 	bne	r4,r3,40824 <__pack_f+0x124>
   407fc:	10c0200c 	andi	r3,r2,128
   40800:	18000126 	beq	r3,zero,40808 <__pack_f+0x108>
   40804:	10801004 	addi	r2,r2,64
   40808:	100690ba 	slli	r3,r2,2
   4080c:	01100034 	movhi	r4,16384
   40810:	1105403a 	cmpgeu	r2,r2,r4
   40814:	1806d27a 	srli	r3,r3,9
   40818:	1009883a 	mov	r4,r2
   4081c:	003fd206 	br	40768 <__alt_data_end+0xfffd9668>
   40820:	0005883a 	mov	r2,zero
   40824:	10800fc4 	addi	r2,r2,63
   40828:	003ff706 	br	40808 <__alt_data_end+0xfffd9708>

0004082c <__unpack_f>:
   4082c:	20c00017 	ldw	r3,0(r4)
   40830:	00802034 	movhi	r2,128
   40834:	10bfffc4 	addi	r2,r2,-1
   40838:	1808d5fa 	srli	r4,r3,23
   4083c:	180cd7fa 	srli	r6,r3,31
   40840:	1884703a 	and	r2,r3,r2
   40844:	21003fcc 	andi	r4,r4,255
   40848:	29800115 	stw	r6,4(r5)
   4084c:	2000111e 	bne	r4,zero,40894 <__unpack_f+0x68>
   40850:	10001a26 	beq	r2,zero,408bc <__unpack_f+0x90>
   40854:	00ffe084 	movi	r3,-126
   40858:	100491fa 	slli	r2,r2,7
   4085c:	28c00215 	stw	r3,8(r5)
   40860:	00c000c4 	movi	r3,3
   40864:	28c00015 	stw	r3,0(r5)
   40868:	01900034 	movhi	r6,16384
   4086c:	31bfffc4 	addi	r6,r6,-1
   40870:	30801036 	bltu	r6,r2,408b4 <__unpack_f+0x88>
   40874:	00ffe044 	movi	r3,-127
   40878:	1085883a 	add	r2,r2,r2
   4087c:	1809883a 	mov	r4,r3
   40880:	18ffffc4 	addi	r3,r3,-1
   40884:	30bffc2e 	bgeu	r6,r2,40878 <__alt_data_end+0xfffd9778>
   40888:	29000215 	stw	r4,8(r5)
   4088c:	28800315 	stw	r2,12(r5)
   40890:	f800283a 	ret
   40894:	01803fc4 	movi	r6,255
   40898:	21800b26 	beq	r4,r6,408c8 <__unpack_f+0x9c>
   4089c:	100491fa 	slli	r2,r2,7
   408a0:	213fe044 	addi	r4,r4,-127
   408a4:	00c000c4 	movi	r3,3
   408a8:	10900034 	orhi	r2,r2,16384
   408ac:	29000215 	stw	r4,8(r5)
   408b0:	28c00015 	stw	r3,0(r5)
   408b4:	28800315 	stw	r2,12(r5)
   408b8:	f800283a 	ret
   408bc:	00800084 	movi	r2,2
   408c0:	28800015 	stw	r2,0(r5)
   408c4:	f800283a 	ret
   408c8:	10000526 	beq	r2,zero,408e0 <__unpack_f+0xb4>
   408cc:	18c0042c 	andhi	r3,r3,16
   408d0:	18000626 	beq	r3,zero,408ec <__unpack_f+0xc0>
   408d4:	00c00044 	movi	r3,1
   408d8:	28c00015 	stw	r3,0(r5)
   408dc:	003ff506 	br	408b4 <__alt_data_end+0xfffd97b4>
   408e0:	00800104 	movi	r2,4
   408e4:	28800015 	stw	r2,0(r5)
   408e8:	f800283a 	ret
   408ec:	28000015 	stw	zero,0(r5)
   408f0:	003ff006 	br	408b4 <__alt_data_end+0xfffd97b4>

000408f4 <__pack_d>:
   408f4:	20800017 	ldw	r2,0(r4)
   408f8:	defff804 	addi	sp,sp,-32
   408fc:	dcc00315 	stw	r19,12(sp)
   40900:	dc800215 	stw	r18,8(sp)
   40904:	dfc00715 	stw	ra,28(sp)
   40908:	dd800615 	stw	r22,24(sp)
   4090c:	dd400515 	stw	r21,20(sp)
   40910:	dd000415 	stw	r20,16(sp)
   40914:	dc400115 	stw	r17,4(sp)
   40918:	dc000015 	stw	r16,0(sp)
   4091c:	04800044 	movi	r18,1
   40920:	24400317 	ldw	r17,12(r4)
   40924:	24000417 	ldw	r16,16(r4)
   40928:	24c00117 	ldw	r19,4(r4)
   4092c:	9080422e 	bgeu	r18,r2,40a38 <__pack_d+0x144>
   40930:	00c00104 	movi	r3,4
   40934:	10c03c26 	beq	r2,r3,40a28 <__pack_d+0x134>
   40938:	00c00084 	movi	r3,2
   4093c:	10c01926 	beq	r2,r3,409a4 <__pack_d+0xb0>
   40940:	8c04b03a 	or	r2,r17,r16
   40944:	10001726 	beq	r2,zero,409a4 <__pack_d+0xb0>
   40948:	21000217 	ldw	r4,8(r4)
   4094c:	00bf0084 	movi	r2,-1022
   40950:	20804016 	blt	r4,r2,40a54 <__pack_d+0x160>
   40954:	0080ffc4 	movi	r2,1023
   40958:	11003316 	blt	r2,r4,40a28 <__pack_d+0x134>
   4095c:	88803fcc 	andi	r2,r17,255
   40960:	00c02004 	movi	r3,128
   40964:	10c02926 	beq	r2,r3,40a0c <__pack_d+0x118>
   40968:	88801fc4 	addi	r2,r17,127
   4096c:	1463803a 	cmpltu	r17,r2,r17
   40970:	8c21883a 	add	r16,r17,r16
   40974:	1023883a 	mov	r17,r2
   40978:	00880034 	movhi	r2,8192
   4097c:	10bfffc4 	addi	r2,r2,-1
   40980:	14001c36 	bltu	r2,r16,409f4 <__pack_d+0x100>
   40984:	2100ffc4 	addi	r4,r4,1023
   40988:	8006963a 	slli	r3,r16,24
   4098c:	8804d23a 	srli	r2,r17,8
   40990:	8020913a 	slli	r16,r16,4
   40994:	2101ffcc 	andi	r4,r4,2047
   40998:	1884b03a 	or	r2,r3,r2
   4099c:	8020d33a 	srli	r16,r16,12
   409a0:	00000306 	br	409b0 <__pack_d+0xbc>
   409a4:	0009883a 	mov	r4,zero
   409a8:	0005883a 	mov	r2,zero
   409ac:	0021883a 	mov	r16,zero
   409b0:	2008953a 	slli	r4,r4,20
   409b4:	982697fa 	slli	r19,r19,31
   409b8:	00c00434 	movhi	r3,16
   409bc:	18ffffc4 	addi	r3,r3,-1
   409c0:	80e0703a 	and	r16,r16,r3
   409c4:	8106b03a 	or	r3,r16,r4
   409c8:	1cc6b03a 	or	r3,r3,r19
   409cc:	dfc00717 	ldw	ra,28(sp)
   409d0:	dd800617 	ldw	r22,24(sp)
   409d4:	dd400517 	ldw	r21,20(sp)
   409d8:	dd000417 	ldw	r20,16(sp)
   409dc:	dcc00317 	ldw	r19,12(sp)
   409e0:	dc800217 	ldw	r18,8(sp)
   409e4:	dc400117 	ldw	r17,4(sp)
   409e8:	dc000017 	ldw	r16,0(sp)
   409ec:	dec00804 	addi	sp,sp,32
   409f0:	f800283a 	ret
   409f4:	800697fa 	slli	r3,r16,31
   409f8:	8804d07a 	srli	r2,r17,1
   409fc:	21010004 	addi	r4,r4,1024
   40a00:	8020d07a 	srli	r16,r16,1
   40a04:	18a2b03a 	or	r17,r3,r2
   40a08:	003fdf06 	br	40988 <__alt_data_end+0xfffd9888>
   40a0c:	88c0400c 	andi	r3,r17,256
   40a10:	183fd926 	beq	r3,zero,40978 <__alt_data_end+0xfffd9878>
   40a14:	8885883a 	add	r2,r17,r2
   40a18:	1463803a 	cmpltu	r17,r2,r17
   40a1c:	8c21883a 	add	r16,r17,r16
   40a20:	1023883a 	mov	r17,r2
   40a24:	003fd406 	br	40978 <__alt_data_end+0xfffd9878>
   40a28:	0101ffc4 	movi	r4,2047
   40a2c:	0005883a 	mov	r2,zero
   40a30:	0021883a 	mov	r16,zero
   40a34:	003fde06 	br	409b0 <__alt_data_end+0xfffd98b0>
   40a38:	84000234 	orhi	r16,r16,8
   40a3c:	00c00434 	movhi	r3,16
   40a40:	18ffffc4 	addi	r3,r3,-1
   40a44:	8805883a 	mov	r2,r17
   40a48:	80e0703a 	and	r16,r16,r3
   40a4c:	0101ffc4 	movi	r4,2047
   40a50:	003fd706 	br	409b0 <__alt_data_end+0xfffd98b0>
   40a54:	1129c83a 	sub	r20,r2,r4
   40a58:	00800e04 	movi	r2,56
   40a5c:	15002716 	blt	r2,r20,40afc <__pack_d+0x208>
   40a60:	800b883a 	mov	r5,r16
   40a64:	a00d883a 	mov	r6,r20
   40a68:	8809883a 	mov	r4,r17
   40a6c:	0040c1c0 	call	40c1c <__lshrdi3>
   40a70:	9009883a 	mov	r4,r18
   40a74:	000b883a 	mov	r5,zero
   40a78:	a00d883a 	mov	r6,r20
   40a7c:	102d883a 	mov	r22,r2
   40a80:	182b883a 	mov	r21,r3
   40a84:	0040c600 	call	40c60 <__ashldi3>
   40a88:	1009003a 	cmpeq	r4,r2,zero
   40a8c:	1907c83a 	sub	r3,r3,r4
   40a90:	10bfffc4 	addi	r2,r2,-1
   40a94:	1c20703a 	and	r16,r3,r16
   40a98:	1444703a 	and	r2,r2,r17
   40a9c:	1404b03a 	or	r2,r2,r16
   40aa0:	1004c03a 	cmpne	r2,r2,zero
   40aa4:	1584b03a 	or	r2,r2,r22
   40aa8:	11003fcc 	andi	r4,r2,255
   40aac:	01402004 	movi	r5,128
   40ab0:	a807883a 	mov	r3,r21
   40ab4:	2140131e 	bne	r4,r5,40b04 <__pack_d+0x210>
   40ab8:	1140400c 	andi	r5,r2,256
   40abc:	28000426 	beq	r5,zero,40ad0 <__pack_d+0x1dc>
   40ac0:	1109883a 	add	r4,r2,r4
   40ac4:	2085803a 	cmpltu	r2,r4,r2
   40ac8:	1547883a 	add	r3,r2,r21
   40acc:	2005883a 	mov	r2,r4
   40ad0:	1808963a 	slli	r4,r3,24
   40ad4:	1004d23a 	srli	r2,r2,8
   40ad8:	1820913a 	slli	r16,r3,4
   40adc:	01440034 	movhi	r5,4096
   40ae0:	297fffc4 	addi	r5,r5,-1
   40ae4:	2084b03a 	or	r2,r4,r2
   40ae8:	8020d33a 	srli	r16,r16,12
   40aec:	01000044 	movi	r4,1
   40af0:	28ffaf36 	bltu	r5,r3,409b0 <__alt_data_end+0xfffd98b0>
   40af4:	0009883a 	mov	r4,zero
   40af8:	003fad06 	br	409b0 <__alt_data_end+0xfffd98b0>
   40afc:	0005883a 	mov	r2,zero
   40b00:	0007883a 	mov	r3,zero
   40b04:	11001fc4 	addi	r4,r2,127
   40b08:	2085803a 	cmpltu	r2,r4,r2
   40b0c:	10c7883a 	add	r3,r2,r3
   40b10:	2005883a 	mov	r2,r4
   40b14:	003fee06 	br	40ad0 <__alt_data_end+0xfffd99d0>

00040b18 <__unpack_d>:
   40b18:	21800117 	ldw	r6,4(r4)
   40b1c:	20c00017 	ldw	r3,0(r4)
   40b20:	3004d7fa 	srli	r2,r6,31
   40b24:	3008d53a 	srli	r4,r6,20
   40b28:	28800115 	stw	r2,4(r5)
   40b2c:	2101ffcc 	andi	r4,r4,2047
   40b30:	00800434 	movhi	r2,16
   40b34:	10bfffc4 	addi	r2,r2,-1
   40b38:	3084703a 	and	r2,r6,r2
   40b3c:	20001a1e 	bne	r4,zero,40ba8 <__unpack_d+0x90>
   40b40:	1888b03a 	or	r4,r3,r2
   40b44:	20002626 	beq	r4,zero,40be0 <__unpack_d+0xc8>
   40b48:	1808d63a 	srli	r4,r3,24
   40b4c:	1004923a 	slli	r2,r2,8
   40b50:	01bf0084 	movi	r6,-1022
   40b54:	29800215 	stw	r6,8(r5)
   40b58:	2084b03a 	or	r2,r4,r2
   40b5c:	010000c4 	movi	r4,3
   40b60:	29000015 	stw	r4,0(r5)
   40b64:	02040034 	movhi	r8,4096
   40b68:	423fffc4 	addi	r8,r8,-1
   40b6c:	1806923a 	slli	r3,r3,8
   40b70:	40801836 	bltu	r8,r2,40bd4 <__unpack_d+0xbc>
   40b74:	013f0044 	movi	r4,-1023
   40b78:	18cd883a 	add	r6,r3,r3
   40b7c:	30c7803a 	cmpltu	r3,r6,r3
   40b80:	1085883a 	add	r2,r2,r2
   40b84:	1885883a 	add	r2,r3,r2
   40b88:	200f883a 	mov	r7,r4
   40b8c:	3007883a 	mov	r3,r6
   40b90:	213fffc4 	addi	r4,r4,-1
   40b94:	40bff82e 	bgeu	r8,r2,40b78 <__alt_data_end+0xfffd9a78>
   40b98:	29c00215 	stw	r7,8(r5)
   40b9c:	28c00315 	stw	r3,12(r5)
   40ba0:	28800415 	stw	r2,16(r5)
   40ba4:	f800283a 	ret
   40ba8:	01c1ffc4 	movi	r7,2047
   40bac:	21c00f26 	beq	r4,r7,40bec <__unpack_d+0xd4>
   40bb0:	180cd63a 	srli	r6,r3,24
   40bb4:	1004923a 	slli	r2,r2,8
   40bb8:	213f0044 	addi	r4,r4,-1023
   40bbc:	1806923a 	slli	r3,r3,8
   40bc0:	3084b03a 	or	r2,r6,r2
   40bc4:	29000215 	stw	r4,8(r5)
   40bc8:	010000c4 	movi	r4,3
   40bcc:	10840034 	orhi	r2,r2,4096
   40bd0:	29000015 	stw	r4,0(r5)
   40bd4:	28c00315 	stw	r3,12(r5)
   40bd8:	28800415 	stw	r2,16(r5)
   40bdc:	f800283a 	ret
   40be0:	00800084 	movi	r2,2
   40be4:	28800015 	stw	r2,0(r5)
   40be8:	f800283a 	ret
   40bec:	1888b03a 	or	r4,r3,r2
   40bf0:	20000526 	beq	r4,zero,40c08 <__unpack_d+0xf0>
   40bf4:	3180022c 	andhi	r6,r6,8
   40bf8:	30000626 	beq	r6,zero,40c14 <__unpack_d+0xfc>
   40bfc:	01000044 	movi	r4,1
   40c00:	29000015 	stw	r4,0(r5)
   40c04:	003ff306 	br	40bd4 <__alt_data_end+0xfffd9ad4>
   40c08:	00800104 	movi	r2,4
   40c0c:	28800015 	stw	r2,0(r5)
   40c10:	f800283a 	ret
   40c14:	28000015 	stw	zero,0(r5)
   40c18:	003fee06 	br	40bd4 <__alt_data_end+0xfffd9ad4>

00040c1c <__lshrdi3>:
   40c1c:	2005883a 	mov	r2,r4
   40c20:	2807883a 	mov	r3,r5
   40c24:	30000826 	beq	r6,zero,40c48 <__lshrdi3+0x2c>
   40c28:	01000804 	movi	r4,32
   40c2c:	2189c83a 	sub	r4,r4,r6
   40c30:	0100060e 	bge	zero,r4,40c4c <__lshrdi3+0x30>
   40c34:	1184d83a 	srl	r2,r2,r6
   40c38:	2908983a 	sll	r4,r5,r4
   40c3c:	298cd83a 	srl	r6,r5,r6
   40c40:	2084b03a 	or	r2,r4,r2
   40c44:	3007883a 	mov	r3,r6
   40c48:	f800283a 	ret
   40c4c:	0105c83a 	sub	r2,zero,r4
   40c50:	000d883a 	mov	r6,zero
   40c54:	2884d83a 	srl	r2,r5,r2
   40c58:	3007883a 	mov	r3,r6
   40c5c:	003ffa06 	br	40c48 <__alt_data_end+0xfffd9b48>

00040c60 <__ashldi3>:
   40c60:	2005883a 	mov	r2,r4
   40c64:	2807883a 	mov	r3,r5
   40c68:	30000826 	beq	r6,zero,40c8c <__ashldi3+0x2c>
   40c6c:	01000804 	movi	r4,32
   40c70:	2189c83a 	sub	r4,r4,r6
   40c74:	0100060e 	bge	zero,r4,40c90 <__ashldi3+0x30>
   40c78:	1108d83a 	srl	r4,r2,r4
   40c7c:	2986983a 	sll	r3,r5,r6
   40c80:	118c983a 	sll	r6,r2,r6
   40c84:	20c6b03a 	or	r3,r4,r3
   40c88:	3005883a 	mov	r2,r6
   40c8c:	f800283a 	ret
   40c90:	0107c83a 	sub	r3,zero,r4
   40c94:	000d883a 	mov	r6,zero
   40c98:	10c6983a 	sll	r3,r2,r3
   40c9c:	3005883a 	mov	r2,r6
   40ca0:	003ffa06 	br	40c8c <__alt_data_end+0xfffd9b8c>

00040ca4 <_printf_r>:
   40ca4:	defffd04 	addi	sp,sp,-12
   40ca8:	dfc00015 	stw	ra,0(sp)
   40cac:	d9800115 	stw	r6,4(sp)
   40cb0:	d9c00215 	stw	r7,8(sp)
   40cb4:	280d883a 	mov	r6,r5
   40cb8:	21400217 	ldw	r5,8(r4)
   40cbc:	d9c00104 	addi	r7,sp,4
   40cc0:	0040e640 	call	40e64 <___vfprintf_internal_r>
   40cc4:	dfc00017 	ldw	ra,0(sp)
   40cc8:	dec00304 	addi	sp,sp,12
   40ccc:	f800283a 	ret

00040cd0 <printf>:
   40cd0:	defffc04 	addi	sp,sp,-16
   40cd4:	dfc00015 	stw	ra,0(sp)
   40cd8:	d9400115 	stw	r5,4(sp)
   40cdc:	d9800215 	stw	r6,8(sp)
   40ce0:	d9c00315 	stw	r7,12(sp)
   40ce4:	00800174 	movhi	r2,5
   40ce8:	10b7cd04 	addi	r2,r2,-8396
   40cec:	10800017 	ldw	r2,0(r2)
   40cf0:	200b883a 	mov	r5,r4
   40cf4:	d9800104 	addi	r6,sp,4
   40cf8:	11000217 	ldw	r4,8(r2)
   40cfc:	0042c5c0 	call	42c5c <__vfprintf_internal>
   40d00:	dfc00017 	ldw	ra,0(sp)
   40d04:	dec00404 	addi	sp,sp,16
   40d08:	f800283a 	ret

00040d0c <_puts_r>:
   40d0c:	defff604 	addi	sp,sp,-40
   40d10:	dc400815 	stw	r17,32(sp)
   40d14:	2023883a 	mov	r17,r4
   40d18:	2809883a 	mov	r4,r5
   40d1c:	dc000715 	stw	r16,28(sp)
   40d20:	dfc00915 	stw	ra,36(sp)
   40d24:	2821883a 	mov	r16,r5
   40d28:	0040da40 	call	40da4 <strlen>
   40d2c:	10c00044 	addi	r3,r2,1
   40d30:	d8800115 	stw	r2,4(sp)
   40d34:	89400217 	ldw	r5,8(r17)
   40d38:	00800174 	movhi	r2,5
   40d3c:	10b0c204 	addi	r2,r2,-15608
   40d40:	d8800215 	stw	r2,8(sp)
   40d44:	00800044 	movi	r2,1
   40d48:	d8800315 	stw	r2,12(sp)
   40d4c:	8809883a 	mov	r4,r17
   40d50:	00800084 	movi	r2,2
   40d54:	d9800404 	addi	r6,sp,16
   40d58:	dc000015 	stw	r16,0(sp)
   40d5c:	d8c00615 	stw	r3,24(sp)
   40d60:	dec00415 	stw	sp,16(sp)
   40d64:	d8800515 	stw	r2,20(sp)
   40d68:	0044f140 	call	44f14 <__sfvwrite_r>
   40d6c:	1000061e 	bne	r2,zero,40d88 <_puts_r+0x7c>
   40d70:	00800284 	movi	r2,10
   40d74:	dfc00917 	ldw	ra,36(sp)
   40d78:	dc400817 	ldw	r17,32(sp)
   40d7c:	dc000717 	ldw	r16,28(sp)
   40d80:	dec00a04 	addi	sp,sp,40
   40d84:	f800283a 	ret
   40d88:	00bfffc4 	movi	r2,-1
   40d8c:	003ff906 	br	40d74 <__alt_data_end+0xfffd9c74>

00040d90 <puts>:
   40d90:	00800174 	movhi	r2,5
   40d94:	10b7cd04 	addi	r2,r2,-8396
   40d98:	200b883a 	mov	r5,r4
   40d9c:	11000017 	ldw	r4,0(r2)
   40da0:	0040d0c1 	jmpi	40d0c <_puts_r>

00040da4 <strlen>:
   40da4:	208000cc 	andi	r2,r4,3
   40da8:	10001f1e 	bne	r2,zero,40e28 <strlen+0x84>
   40dac:	20800017 	ldw	r2,0(r4)
   40db0:	01ffbff4 	movhi	r7,65279
   40db4:	39ffbfc4 	addi	r7,r7,-257
   40db8:	01a02074 	movhi	r6,32897
   40dbc:	31a02004 	addi	r6,r6,-32640
   40dc0:	11c7883a 	add	r3,r2,r7
   40dc4:	0084303a 	nor	r2,zero,r2
   40dc8:	1886703a 	and	r3,r3,r2
   40dcc:	1986703a 	and	r3,r3,r6
   40dd0:	2005883a 	mov	r2,r4
   40dd4:	1800101e 	bne	r3,zero,40e18 <strlen+0x74>
   40dd8:	10800104 	addi	r2,r2,4
   40ddc:	10c00017 	ldw	r3,0(r2)
   40de0:	19cb883a 	add	r5,r3,r7
   40de4:	00c6303a 	nor	r3,zero,r3
   40de8:	28c6703a 	and	r3,r5,r3
   40dec:	1986703a 	and	r3,r3,r6
   40df0:	1800091e 	bne	r3,zero,40e18 <strlen+0x74>
   40df4:	10800104 	addi	r2,r2,4
   40df8:	10c00017 	ldw	r3,0(r2)
   40dfc:	19cb883a 	add	r5,r3,r7
   40e00:	00c6303a 	nor	r3,zero,r3
   40e04:	28c6703a 	and	r3,r5,r3
   40e08:	1986703a 	and	r3,r3,r6
   40e0c:	183ff226 	beq	r3,zero,40dd8 <__alt_data_end+0xfffd9cd8>
   40e10:	00000106 	br	40e18 <strlen+0x74>
   40e14:	10800044 	addi	r2,r2,1
   40e18:	10c00007 	ldb	r3,0(r2)
   40e1c:	183ffd1e 	bne	r3,zero,40e14 <__alt_data_end+0xfffd9d14>
   40e20:	1105c83a 	sub	r2,r2,r4
   40e24:	f800283a 	ret
   40e28:	2005883a 	mov	r2,r4
   40e2c:	003ffa06 	br	40e18 <__alt_data_end+0xfffd9d18>

00040e30 <__sprint_r>:
   40e30:	30800217 	ldw	r2,8(r6)
   40e34:	defffe04 	addi	sp,sp,-8
   40e38:	dc000015 	stw	r16,0(sp)
   40e3c:	dfc00115 	stw	ra,4(sp)
   40e40:	3021883a 	mov	r16,r6
   40e44:	10000226 	beq	r2,zero,40e50 <__sprint_r+0x20>
   40e48:	0044f140 	call	44f14 <__sfvwrite_r>
   40e4c:	80000215 	stw	zero,8(r16)
   40e50:	80000115 	stw	zero,4(r16)
   40e54:	dfc00117 	ldw	ra,4(sp)
   40e58:	dc000017 	ldw	r16,0(sp)
   40e5c:	dec00204 	addi	sp,sp,8
   40e60:	f800283a 	ret

00040e64 <___vfprintf_internal_r>:
   40e64:	defeb904 	addi	sp,sp,-1308
   40e68:	dc013d15 	stw	r16,1268(sp)
   40e6c:	d9013015 	stw	r4,1216(sp)
   40e70:	dfc14615 	stw	ra,1304(sp)
   40e74:	df014515 	stw	fp,1300(sp)
   40e78:	ddc14415 	stw	r23,1296(sp)
   40e7c:	dd814315 	stw	r22,1292(sp)
   40e80:	dd414215 	stw	r21,1288(sp)
   40e84:	dd014115 	stw	r20,1284(sp)
   40e88:	dcc14015 	stw	r19,1280(sp)
   40e8c:	dc813f15 	stw	r18,1276(sp)
   40e90:	dc413e15 	stw	r17,1272(sp)
   40e94:	d9412915 	stw	r5,1188(sp)
   40e98:	3021883a 	mov	r16,r6
   40e9c:	d9c12d15 	stw	r7,1204(sp)
   40ea0:	00456000 	call	45600 <_localeconv_r>
   40ea4:	10800017 	ldw	r2,0(r2)
   40ea8:	d9013017 	ldw	r4,1216(sp)
   40eac:	d8013315 	stw	zero,1228(sp)
   40eb0:	d8813715 	stw	r2,1244(sp)
   40eb4:	d8013415 	stw	zero,1232(sp)
   40eb8:	20000226 	beq	r4,zero,40ec4 <___vfprintf_internal_r+0x60>
   40ebc:	20800e17 	ldw	r2,56(r4)
   40ec0:	10019826 	beq	r2,zero,41524 <___vfprintf_internal_r+0x6c0>
   40ec4:	da012917 	ldw	r8,1188(sp)
   40ec8:	4080030b 	ldhu	r2,12(r8)
   40ecc:	10c0020c 	andi	r3,r2,8
   40ed0:	18ffffcc 	andi	r3,r3,65535
   40ed4:	18e0001c 	xori	r3,r3,32768
   40ed8:	18e00004 	addi	r3,r3,-32768
   40edc:	18013a26 	beq	r3,zero,413c8 <___vfprintf_internal_r+0x564>
   40ee0:	40c00417 	ldw	r3,16(r8)
   40ee4:	18013826 	beq	r3,zero,413c8 <___vfprintf_internal_r+0x564>
   40ee8:	1100068c 	andi	r4,r2,26
   40eec:	00c00284 	movi	r3,10
   40ef0:	20c13e26 	beq	r4,r3,413ec <___vfprintf_internal_r+0x588>
   40ef4:	da010dc4 	addi	r8,sp,1079
   40ef8:	d8800404 	addi	r2,sp,16
   40efc:	da012615 	stw	r8,1176(sp)
   40f00:	d8811b15 	stw	r2,1132(sp)
   40f04:	1013883a 	mov	r9,r2
   40f08:	d8812617 	ldw	r2,1176(sp)
   40f0c:	da010e04 	addi	r8,sp,1080
   40f10:	dc413017 	ldw	r17,1216(sp)
   40f14:	da012715 	stw	r8,1180(sp)
   40f18:	4091c83a 	sub	r8,r8,r2
   40f1c:	d8011d15 	stw	zero,1140(sp)
   40f20:	d8011c15 	stw	zero,1136(sp)
   40f24:	802b883a 	mov	r21,r16
   40f28:	d8013215 	stw	zero,1224(sp)
   40f2c:	d8013615 	stw	zero,1240(sp)
   40f30:	d8013515 	stw	zero,1236(sp)
   40f34:	d8012c15 	stw	zero,1200(sp)
   40f38:	da013915 	stw	r8,1252(sp)
   40f3c:	a8800007 	ldb	r2,0(r21)
   40f40:	1002ec26 	beq	r2,zero,41af4 <___vfprintf_internal_r+0xc90>
   40f44:	00c00944 	movi	r3,37
   40f48:	a825883a 	mov	r18,r21
   40f4c:	10c0021e 	bne	r2,r3,40f58 <___vfprintf_internal_r+0xf4>
   40f50:	00001406 	br	40fa4 <___vfprintf_internal_r+0x140>
   40f54:	10c00326 	beq	r2,r3,40f64 <___vfprintf_internal_r+0x100>
   40f58:	94800044 	addi	r18,r18,1
   40f5c:	90800007 	ldb	r2,0(r18)
   40f60:	103ffc1e 	bne	r2,zero,40f54 <__alt_data_end+0xfffd9e54>
   40f64:	9561c83a 	sub	r16,r18,r21
   40f68:	80000e26 	beq	r16,zero,40fa4 <___vfprintf_internal_r+0x140>
   40f6c:	da011d17 	ldw	r8,1140(sp)
   40f70:	d8c11c17 	ldw	r3,1136(sp)
   40f74:	4d400015 	stw	r21,0(r9)
   40f78:	4c000115 	stw	r16,4(r9)
   40f7c:	4411883a 	add	r8,r8,r16
   40f80:	18c00044 	addi	r3,r3,1
   40f84:	da011d15 	stw	r8,1140(sp)
   40f88:	d8c11c15 	stw	r3,1136(sp)
   40f8c:	008001c4 	movi	r2,7
   40f90:	10c15d16 	blt	r2,r3,41508 <___vfprintf_internal_r+0x6a4>
   40f94:	4a400204 	addi	r9,r9,8
   40f98:	d8812c17 	ldw	r2,1200(sp)
   40f9c:	1405883a 	add	r2,r2,r16
   40fa0:	d8812c15 	stw	r2,1200(sp)
   40fa4:	90800007 	ldb	r2,0(r18)
   40fa8:	10013b26 	beq	r2,zero,41498 <___vfprintf_internal_r+0x634>
   40fac:	95400044 	addi	r21,r18,1
   40fb0:	94800047 	ldb	r18,1(r18)
   40fb4:	d8012585 	stb	zero,1174(sp)
   40fb8:	073fffc4 	movi	fp,-1
   40fbc:	d8012e15 	stw	zero,1208(sp)
   40fc0:	0021883a 	mov	r16,zero
   40fc4:	00c01604 	movi	r3,88
   40fc8:	01400244 	movi	r5,9
   40fcc:	02800a84 	movi	r10,42
   40fd0:	01c01b04 	movi	r7,108
   40fd4:	01800ac4 	movi	r6,43
   40fd8:	02c00804 	movi	r11,32
   40fdc:	ad400044 	addi	r21,r21,1
   40fe0:	90bff804 	addi	r2,r18,-32
   40fe4:	1880092e 	bgeu	r3,r2,4100c <___vfprintf_internal_r+0x1a8>
   40fe8:	90012b26 	beq	r18,zero,41498 <___vfprintf_internal_r+0x634>
   40fec:	00c00044 	movi	r3,1
   40ff0:	d8c12815 	stw	r3,1184(sp)
   40ff4:	dc810405 	stb	r18,1040(sp)
   40ff8:	d8012585 	stb	zero,1174(sp)
   40ffc:	d8c12b15 	stw	r3,1196(sp)
   41000:	dcc10404 	addi	r19,sp,1040
   41004:	d8013115 	stw	zero,1220(sp)
   41008:	00008806 	br	4122c <___vfprintf_internal_r+0x3c8>
   4100c:	1085883a 	add	r2,r2,r2
   41010:	1085883a 	add	r2,r2,r2
   41014:	01000134 	movhi	r4,4
   41018:	21040a04 	addi	r4,r4,4136
   4101c:	1105883a 	add	r2,r2,r4
   41020:	10800017 	ldw	r2,0(r2)
   41024:	1000683a 	jmp	r2
   41028:	000415dc 	xori	zero,zero,4183
   4102c:	00040fe8 	cmpgeui	zero,zero,4159
   41030:	00040fe8 	cmpgeui	zero,zero,4159
   41034:	000415f0 	cmpltui	zero,zero,4183
   41038:	00040fe8 	cmpgeui	zero,zero,4159
   4103c:	00040fe8 	cmpgeui	zero,zero,4159
   41040:	00040fe8 	cmpgeui	zero,zero,4159
   41044:	00040fe8 	cmpgeui	zero,zero,4159
   41048:	00040fe8 	cmpgeui	zero,zero,4159
   4104c:	00040fe8 	cmpgeui	zero,zero,4159
   41050:	000416d8 	cmpnei	zero,zero,4187
   41054:	00041594 	movui	zero,4182
   41058:	00040fe8 	cmpgeui	zero,zero,4159
   4105c:	000413bc 	xorhi	zero,zero,4174
   41060:	000415a0 	cmpeqi	zero,zero,4182
   41064:	00040fe8 	cmpgeui	zero,zero,4159
   41068:	000415fc 	xorhi	zero,zero,4183
   4106c:	000416fc 	xorhi	zero,zero,4187
   41070:	000416fc 	xorhi	zero,zero,4187
   41074:	000416fc 	xorhi	zero,zero,4187
   41078:	000416fc 	xorhi	zero,zero,4187
   4107c:	000416fc 	xorhi	zero,zero,4187
   41080:	000416fc 	xorhi	zero,zero,4187
   41084:	000416fc 	xorhi	zero,zero,4187
   41088:	000416fc 	xorhi	zero,zero,4187
   4108c:	000416fc 	xorhi	zero,zero,4187
   41090:	00040fe8 	cmpgeui	zero,zero,4159
   41094:	00040fe8 	cmpgeui	zero,zero,4159
   41098:	00040fe8 	cmpgeui	zero,zero,4159
   4109c:	00040fe8 	cmpgeui	zero,zero,4159
   410a0:	00040fe8 	cmpgeui	zero,zero,4159
   410a4:	00040fe8 	cmpgeui	zero,zero,4159
   410a8:	00040fe8 	cmpgeui	zero,zero,4159
   410ac:	00040fe8 	cmpgeui	zero,zero,4159
   410b0:	00040fe8 	cmpgeui	zero,zero,4159
   410b4:	00040fe8 	cmpgeui	zero,zero,4159
   410b8:	00041358 	cmpnei	zero,zero,4173
   410bc:	00041724 	muli	zero,zero,4188
   410c0:	00040fe8 	cmpgeui	zero,zero,4159
   410c4:	00041724 	muli	zero,zero,4188
   410c8:	00040fe8 	cmpgeui	zero,zero,4159
   410cc:	00040fe8 	cmpgeui	zero,zero,4159
   410d0:	00040fe8 	cmpgeui	zero,zero,4159
   410d4:	00040fe8 	cmpgeui	zero,zero,4159
   410d8:	00041894 	movui	zero,4194
   410dc:	00040fe8 	cmpgeui	zero,zero,4159
   410e0:	00040fe8 	cmpgeui	zero,zero,4159
   410e4:	00041320 	cmpeqi	zero,zero,4172
   410e8:	00040fe8 	cmpgeui	zero,zero,4159
   410ec:	00040fe8 	cmpgeui	zero,zero,4159
   410f0:	00040fe8 	cmpgeui	zero,zero,4159
   410f4:	00040fe8 	cmpgeui	zero,zero,4159
   410f8:	00040fe8 	cmpgeui	zero,zero,4159
   410fc:	0004118c 	andi	zero,zero,4166
   41100:	00040fe8 	cmpgeui	zero,zero,4159
   41104:	00040fe8 	cmpgeui	zero,zero,4159
   41108:	00041608 	cmpgei	zero,zero,4184
   4110c:	00040fe8 	cmpgeui	zero,zero,4159
   41110:	00040fe8 	cmpgeui	zero,zero,4159
   41114:	00040fe8 	cmpgeui	zero,zero,4159
   41118:	00040fe8 	cmpgeui	zero,zero,4159
   4111c:	00040fe8 	cmpgeui	zero,zero,4159
   41120:	00040fe8 	cmpgeui	zero,zero,4159
   41124:	00040fe8 	cmpgeui	zero,zero,4159
   41128:	00040fe8 	cmpgeui	zero,zero,4159
   4112c:	00040fe8 	cmpgeui	zero,zero,4159
   41130:	00040fe8 	cmpgeui	zero,zero,4159
   41134:	0004167c 	xorhi	zero,zero,4185
   41138:	0004135c 	xori	zero,zero,4173
   4113c:	00041724 	muli	zero,zero,4188
   41140:	00041724 	muli	zero,zero,4188
   41144:	00041724 	muli	zero,zero,4188
   41148:	0004165c 	xori	zero,zero,4185
   4114c:	0004135c 	xori	zero,zero,4173
   41150:	00040fe8 	cmpgeui	zero,zero,4159
   41154:	00040fe8 	cmpgeui	zero,zero,4159
   41158:	00041668 	cmpgeui	zero,zero,4185
   4115c:	00040fe8 	cmpgeui	zero,zero,4159
   41160:	000416ac 	andhi	zero,zero,4186
   41164:	00041324 	muli	zero,zero,4172
   41168:	000417ac 	andhi	zero,zero,4190
   4116c:	000417f8 	rdprs	zero,zero,4191
   41170:	00040fe8 	cmpgeui	zero,zero,4159
   41174:	00041804 	movi	zero,4192
   41178:	00040fe8 	cmpgeui	zero,zero,4159
   4117c:	00041190 	cmplti	zero,zero,4166
   41180:	00040fe8 	cmpgeui	zero,zero,4159
   41184:	00040fe8 	cmpgeui	zero,zero,4159
   41188:	00041860 	cmpeqi	zero,zero,4193
   4118c:	84000414 	ori	r16,r16,16
   41190:	8080080c 	andi	r2,r16,32
   41194:	1000f51e 	bne	r2,zero,4156c <___vfprintf_internal_r+0x708>
   41198:	8080040c 	andi	r2,r16,16
   4119c:	10042c26 	beq	r2,zero,42250 <___vfprintf_internal_r+0x13ec>
   411a0:	da012d17 	ldw	r8,1204(sp)
   411a4:	002d883a 	mov	r22,zero
   411a8:	00c00044 	movi	r3,1
   411ac:	45c00017 	ldw	r23,0(r8)
   411b0:	42000104 	addi	r8,r8,4
   411b4:	da012d15 	stw	r8,1204(sp)
   411b8:	b805883a 	mov	r2,r23
   411bc:	d8012585 	stb	zero,1174(sp)
   411c0:	e0000216 	blt	fp,zero,411cc <___vfprintf_internal_r+0x368>
   411c4:	013fdfc4 	movi	r4,-129
   411c8:	8120703a 	and	r16,r16,r4
   411cc:	1002671e 	bne	r2,zero,41b6c <___vfprintf_internal_r+0xd08>
   411d0:	e002661e 	bne	fp,zero,41b6c <___vfprintf_internal_r+0xd08>
   411d4:	18c03fcc 	andi	r3,r3,255
   411d8:	1803561e 	bne	r3,zero,41f34 <___vfprintf_internal_r+0x10d0>
   411dc:	8080004c 	andi	r2,r16,1
   411e0:	10035426 	beq	r2,zero,41f34 <___vfprintf_internal_r+0x10d0>
   411e4:	da013917 	ldw	r8,1252(sp)
   411e8:	00800c04 	movi	r2,48
   411ec:	d8810dc5 	stb	r2,1079(sp)
   411f0:	da012b15 	stw	r8,1196(sp)
   411f4:	dcc10dc4 	addi	r19,sp,1079
   411f8:	d8812b17 	ldw	r2,1196(sp)
   411fc:	d8812815 	stw	r2,1184(sp)
   41200:	1700010e 	bge	r2,fp,41208 <___vfprintf_internal_r+0x3a4>
   41204:	df012815 	stw	fp,1184(sp)
   41208:	d8812583 	ldbu	r2,1174(sp)
   4120c:	df013115 	stw	fp,1220(sp)
   41210:	10803fcc 	andi	r2,r2,255
   41214:	1080201c 	xori	r2,r2,128
   41218:	10bfe004 	addi	r2,r2,-128
   4121c:	10000326 	beq	r2,zero,4122c <___vfprintf_internal_r+0x3c8>
   41220:	da012817 	ldw	r8,1184(sp)
   41224:	42000044 	addi	r8,r8,1
   41228:	da012815 	stw	r8,1184(sp)
   4122c:	80c0008c 	andi	r3,r16,2
   41230:	d8c12a15 	stw	r3,1192(sp)
   41234:	18000326 	beq	r3,zero,41244 <___vfprintf_internal_r+0x3e0>
   41238:	da012817 	ldw	r8,1184(sp)
   4123c:	42000084 	addi	r8,r8,2
   41240:	da012815 	stw	r8,1184(sp)
   41244:	80c0210c 	andi	r3,r16,132
   41248:	d8c12f15 	stw	r3,1212(sp)
   4124c:	1801941e 	bne	r3,zero,418a0 <___vfprintf_internal_r+0xa3c>
   41250:	da012e17 	ldw	r8,1208(sp)
   41254:	d8c12817 	ldw	r3,1184(sp)
   41258:	40edc83a 	sub	r22,r8,r3
   4125c:	0581900e 	bge	zero,r22,418a0 <___vfprintf_internal_r+0xa3c>
   41260:	02800404 	movi	r10,16
   41264:	da011d17 	ldw	r8,1140(sp)
   41268:	d8c11c17 	ldw	r3,1136(sp)
   4126c:	05c00174 	movhi	r23,5
   41270:	bdf0d384 	addi	r23,r23,-15538
   41274:	5580200e 	bge	r10,r22,412f8 <___vfprintf_internal_r+0x494>
   41278:	dc813815 	stw	r18,1248(sp)
   4127c:	5039883a 	mov	fp,r10
   41280:	b825883a 	mov	r18,r23
   41284:	050001c4 	movi	r20,7
   41288:	b02f883a 	mov	r23,r22
   4128c:	802d883a 	mov	r22,r16
   41290:	dc012917 	ldw	r16,1188(sp)
   41294:	00000306 	br	412a4 <___vfprintf_internal_r+0x440>
   41298:	bdfffc04 	addi	r23,r23,-16
   4129c:	4a400204 	addi	r9,r9,8
   412a0:	e5c0110e 	bge	fp,r23,412e8 <___vfprintf_internal_r+0x484>
   412a4:	4c800015 	stw	r18,0(r9)
   412a8:	4f000115 	stw	fp,4(r9)
   412ac:	42000404 	addi	r8,r8,16
   412b0:	18c00044 	addi	r3,r3,1
   412b4:	da011d15 	stw	r8,1140(sp)
   412b8:	d8c11c15 	stw	r3,1136(sp)
   412bc:	a0fff60e 	bge	r20,r3,41298 <__alt_data_end+0xfffda198>
   412c0:	8809883a 	mov	r4,r17
   412c4:	800b883a 	mov	r5,r16
   412c8:	d9811b04 	addi	r6,sp,1132
   412cc:	0040e300 	call	40e30 <__sprint_r>
   412d0:	1000771e 	bne	r2,zero,414b0 <___vfprintf_internal_r+0x64c>
   412d4:	bdfffc04 	addi	r23,r23,-16
   412d8:	da011d17 	ldw	r8,1140(sp)
   412dc:	d8c11c17 	ldw	r3,1136(sp)
   412e0:	da400404 	addi	r9,sp,16
   412e4:	e5ffef16 	blt	fp,r23,412a4 <__alt_data_end+0xfffda1a4>
   412e8:	b021883a 	mov	r16,r22
   412ec:	b82d883a 	mov	r22,r23
   412f0:	902f883a 	mov	r23,r18
   412f4:	dc813817 	ldw	r18,1248(sp)
   412f8:	4dc00015 	stw	r23,0(r9)
   412fc:	4d800115 	stw	r22,4(r9)
   41300:	4591883a 	add	r8,r8,r22
   41304:	18c00044 	addi	r3,r3,1
   41308:	da011d15 	stw	r8,1140(sp)
   4130c:	d8c11c15 	stw	r3,1136(sp)
   41310:	008001c4 	movi	r2,7
   41314:	10c36d16 	blt	r2,r3,420cc <___vfprintf_internal_r+0x1268>
   41318:	4a400204 	addi	r9,r9,8
   4131c:	00016206 	br	418a8 <___vfprintf_internal_r+0xa44>
   41320:	84000414 	ori	r16,r16,16
   41324:	8080080c 	andi	r2,r16,32
   41328:	1000801e 	bne	r2,zero,4152c <___vfprintf_internal_r+0x6c8>
   4132c:	8080040c 	andi	r2,r16,16
   41330:	1003da26 	beq	r2,zero,4229c <___vfprintf_internal_r+0x1438>
   41334:	d8c12d17 	ldw	r3,1204(sp)
   41338:	002d883a 	mov	r22,zero
   4133c:	1dc00017 	ldw	r23,0(r3)
   41340:	18c00104 	addi	r3,r3,4
   41344:	d8c12d15 	stw	r3,1204(sp)
   41348:	b805883a 	mov	r2,r23
   4134c:	0007883a 	mov	r3,zero
   41350:	d8012585 	stb	zero,1174(sp)
   41354:	003f9a06 	br	411c0 <__alt_data_end+0xfffda0c0>
   41358:	84000414 	ori	r16,r16,16
   4135c:	8080080c 	andi	r2,r16,32
   41360:	10007b1e 	bne	r2,zero,41550 <___vfprintf_internal_r+0x6ec>
   41364:	8080040c 	andi	r2,r16,16
   41368:	1003ed26 	beq	r2,zero,42320 <___vfprintf_internal_r+0x14bc>
   4136c:	d9012d17 	ldw	r4,1204(sp)
   41370:	25c00017 	ldw	r23,0(r4)
   41374:	21000104 	addi	r4,r4,4
   41378:	d9012d15 	stw	r4,1204(sp)
   4137c:	b82dd7fa 	srai	r22,r23,31
   41380:	b005883a 	mov	r2,r22
   41384:	1003230e 	bge	r2,zero,42014 <___vfprintf_internal_r+0x11b0>
   41388:	05efc83a 	sub	r23,zero,r23
   4138c:	b804c03a 	cmpne	r2,r23,zero
   41390:	05adc83a 	sub	r22,zero,r22
   41394:	b0adc83a 	sub	r22,r22,r2
   41398:	00800b44 	movi	r2,45
   4139c:	d8812585 	stb	r2,1174(sp)
   413a0:	00c00044 	movi	r3,1
   413a4:	bd84b03a 	or	r2,r23,r22
   413a8:	003f8506 	br	411c0 <__alt_data_end+0xfffda0c0>
   413ac:	da012e17 	ldw	r8,1208(sp)
   413b0:	d8812d15 	stw	r2,1204(sp)
   413b4:	0211c83a 	sub	r8,zero,r8
   413b8:	da012e15 	stw	r8,1208(sp)
   413bc:	84000114 	ori	r16,r16,4
   413c0:	ac800007 	ldb	r18,0(r21)
   413c4:	003f0506 	br	40fdc <__alt_data_end+0xfffd9edc>
   413c8:	d9013017 	ldw	r4,1216(sp)
   413cc:	d9412917 	ldw	r5,1188(sp)
   413d0:	0042c800 	call	42c80 <__swsetup_r>
   413d4:	10003d1e 	bne	r2,zero,414cc <___vfprintf_internal_r+0x668>
   413d8:	d8c12917 	ldw	r3,1188(sp)
   413dc:	1880030b 	ldhu	r2,12(r3)
   413e0:	00c00284 	movi	r3,10
   413e4:	1100068c 	andi	r4,r2,26
   413e8:	20fec21e 	bne	r4,r3,40ef4 <__alt_data_end+0xfffd9df4>
   413ec:	d9012917 	ldw	r4,1188(sp)
   413f0:	20c0038b 	ldhu	r3,14(r4)
   413f4:	193fffcc 	andi	r4,r3,65535
   413f8:	2120001c 	xori	r4,r4,32768
   413fc:	21200004 	addi	r4,r4,-32768
   41400:	203ebc16 	blt	r4,zero,40ef4 <__alt_data_end+0xfffd9df4>
   41404:	da012917 	ldw	r8,1188(sp)
   41408:	d9013017 	ldw	r4,1216(sp)
   4140c:	d9c12d17 	ldw	r7,1204(sp)
   41410:	42800717 	ldw	r10,28(r8)
   41414:	42400917 	ldw	r9,36(r8)
   41418:	10bfff4c 	andi	r2,r2,65533
   4141c:	02010004 	movi	r8,1024
   41420:	d881070d 	sth	r2,1052(sp)
   41424:	d9410404 	addi	r5,sp,1040
   41428:	d8800404 	addi	r2,sp,16
   4142c:	800d883a 	mov	r6,r16
   41430:	d8c1078d 	sth	r3,1054(sp)
   41434:	da810b15 	stw	r10,1068(sp)
   41438:	da410d15 	stw	r9,1076(sp)
   4143c:	d8810415 	stw	r2,1040(sp)
   41440:	d8810815 	stw	r2,1056(sp)
   41444:	da010615 	stw	r8,1048(sp)
   41448:	da010915 	stw	r8,1060(sp)
   4144c:	d8010a15 	stw	zero,1064(sp)
   41450:	0040e640 	call	40e64 <___vfprintf_internal_r>
   41454:	d8812c15 	stw	r2,1200(sp)
   41458:	10000416 	blt	r2,zero,4146c <___vfprintf_internal_r+0x608>
   4145c:	d9013017 	ldw	r4,1216(sp)
   41460:	d9410404 	addi	r5,sp,1040
   41464:	00446180 	call	44618 <_fflush_r>
   41468:	1005d81e 	bne	r2,zero,42bcc <___vfprintf_internal_r+0x1d68>
   4146c:	d881070b 	ldhu	r2,1052(sp)
   41470:	1080100c 	andi	r2,r2,64
   41474:	10bfffcc 	andi	r2,r2,65535
   41478:	10a0001c 	xori	r2,r2,32768
   4147c:	10a00004 	addi	r2,r2,-32768
   41480:	10001426 	beq	r2,zero,414d4 <___vfprintf_internal_r+0x670>
   41484:	d8c12917 	ldw	r3,1188(sp)
   41488:	1880030b 	ldhu	r2,12(r3)
   4148c:	10801014 	ori	r2,r2,64
   41490:	1880030d 	sth	r2,12(r3)
   41494:	00000f06 	br	414d4 <___vfprintf_internal_r+0x670>
   41498:	d8811d17 	ldw	r2,1140(sp)
   4149c:	10000426 	beq	r2,zero,414b0 <___vfprintf_internal_r+0x64c>
   414a0:	d9013017 	ldw	r4,1216(sp)
   414a4:	d9412917 	ldw	r5,1188(sp)
   414a8:	d9811b04 	addi	r6,sp,1132
   414ac:	0040e300 	call	40e30 <__sprint_r>
   414b0:	d8c12917 	ldw	r3,1188(sp)
   414b4:	1880030b 	ldhu	r2,12(r3)
   414b8:	1080100c 	andi	r2,r2,64
   414bc:	10bfffcc 	andi	r2,r2,65535
   414c0:	10a0001c 	xori	r2,r2,32768
   414c4:	10a00004 	addi	r2,r2,-32768
   414c8:	10000226 	beq	r2,zero,414d4 <___vfprintf_internal_r+0x670>
   414cc:	00bfffc4 	movi	r2,-1
   414d0:	d8812c15 	stw	r2,1200(sp)
   414d4:	d8812c17 	ldw	r2,1200(sp)
   414d8:	dfc14617 	ldw	ra,1304(sp)
   414dc:	df014517 	ldw	fp,1300(sp)
   414e0:	ddc14417 	ldw	r23,1296(sp)
   414e4:	dd814317 	ldw	r22,1292(sp)
   414e8:	dd414217 	ldw	r21,1288(sp)
   414ec:	dd014117 	ldw	r20,1284(sp)
   414f0:	dcc14017 	ldw	r19,1280(sp)
   414f4:	dc813f17 	ldw	r18,1276(sp)
   414f8:	dc413e17 	ldw	r17,1272(sp)
   414fc:	dc013d17 	ldw	r16,1268(sp)
   41500:	dec14704 	addi	sp,sp,1308
   41504:	f800283a 	ret
   41508:	d9412917 	ldw	r5,1188(sp)
   4150c:	8809883a 	mov	r4,r17
   41510:	d9811b04 	addi	r6,sp,1132
   41514:	0040e300 	call	40e30 <__sprint_r>
   41518:	103fe51e 	bne	r2,zero,414b0 <__alt_data_end+0xfffda3b0>
   4151c:	da400404 	addi	r9,sp,16
   41520:	003e9d06 	br	40f98 <__alt_data_end+0xfffd9e98>
   41524:	00448c00 	call	448c0 <__sinit>
   41528:	003e6606 	br	40ec4 <__alt_data_end+0xfffd9dc4>
   4152c:	d8812d17 	ldw	r2,1204(sp)
   41530:	0007883a 	mov	r3,zero
   41534:	15c00017 	ldw	r23,0(r2)
   41538:	15800117 	ldw	r22,4(r2)
   4153c:	10800204 	addi	r2,r2,8
   41540:	d8812d15 	stw	r2,1204(sp)
   41544:	d8012585 	stb	zero,1174(sp)
   41548:	bd84b03a 	or	r2,r23,r22
   4154c:	003f1c06 	br	411c0 <__alt_data_end+0xfffda0c0>
   41550:	d8c12d17 	ldw	r3,1204(sp)
   41554:	18800117 	ldw	r2,4(r3)
   41558:	1dc00017 	ldw	r23,0(r3)
   4155c:	18c00204 	addi	r3,r3,8
   41560:	d8c12d15 	stw	r3,1204(sp)
   41564:	102d883a 	mov	r22,r2
   41568:	003f8606 	br	41384 <__alt_data_end+0xfffda284>
   4156c:	d8c12d17 	ldw	r3,1204(sp)
   41570:	d9012d17 	ldw	r4,1204(sp)
   41574:	1dc00017 	ldw	r23,0(r3)
   41578:	1d800117 	ldw	r22,4(r3)
   4157c:	21000204 	addi	r4,r4,8
   41580:	00c00044 	movi	r3,1
   41584:	d9012d15 	stw	r4,1204(sp)
   41588:	bd84b03a 	or	r2,r23,r22
   4158c:	d8012585 	stb	zero,1174(sp)
   41590:	003f0b06 	br	411c0 <__alt_data_end+0xfffda0c0>
   41594:	d9812585 	stb	r6,1174(sp)
   41598:	ac800007 	ldb	r18,0(r21)
   4159c:	003e8f06 	br	40fdc <__alt_data_end+0xfffd9edc>
   415a0:	ac800007 	ldb	r18,0(r21)
   415a4:	a9000044 	addi	r4,r21,1
   415a8:	92857d26 	beq	r18,r10,42ba0 <___vfprintf_internal_r+0x1d3c>
   415ac:	90bff404 	addi	r2,r18,-48
   415b0:	0039883a 	mov	fp,zero
   415b4:	28800736 	bltu	r5,r2,415d4 <___vfprintf_internal_r+0x770>
   415b8:	24800007 	ldb	r18,0(r4)
   415bc:	e70002a4 	muli	fp,fp,10
   415c0:	21000044 	addi	r4,r4,1
   415c4:	1739883a 	add	fp,r2,fp
   415c8:	90bff404 	addi	r2,r18,-48
   415cc:	28bffa2e 	bgeu	r5,r2,415b8 <__alt_data_end+0xfffda4b8>
   415d0:	e0044216 	blt	fp,zero,426dc <___vfprintf_internal_r+0x1878>
   415d4:	202b883a 	mov	r21,r4
   415d8:	003e8106 	br	40fe0 <__alt_data_end+0xfffd9ee0>
   415dc:	d8812587 	ldb	r2,1174(sp)
   415e0:	1003581e 	bne	r2,zero,42344 <___vfprintf_internal_r+0x14e0>
   415e4:	dac12585 	stb	r11,1174(sp)
   415e8:	ac800007 	ldb	r18,0(r21)
   415ec:	003e7b06 	br	40fdc <__alt_data_end+0xfffd9edc>
   415f0:	84000054 	ori	r16,r16,1
   415f4:	ac800007 	ldb	r18,0(r21)
   415f8:	003e7806 	br	40fdc <__alt_data_end+0xfffd9edc>
   415fc:	84002014 	ori	r16,r16,128
   41600:	ac800007 	ldb	r18,0(r21)
   41604:	003e7506 	br	40fdc <__alt_data_end+0xfffd9edc>
   41608:	02000174 	movhi	r8,5
   4160c:	4230c704 	addi	r8,r8,-15588
   41610:	da013615 	stw	r8,1240(sp)
   41614:	8080080c 	andi	r2,r16,32
   41618:	10009626 	beq	r2,zero,41874 <___vfprintf_internal_r+0xa10>
   4161c:	d8812d17 	ldw	r2,1204(sp)
   41620:	15c00017 	ldw	r23,0(r2)
   41624:	15800117 	ldw	r22,4(r2)
   41628:	10800204 	addi	r2,r2,8
   4162c:	d8812d15 	stw	r2,1204(sp)
   41630:	8080004c 	andi	r2,r16,1
   41634:	1002ae26 	beq	r2,zero,420f0 <___vfprintf_internal_r+0x128c>
   41638:	bd84b03a 	or	r2,r23,r22
   4163c:	10032a26 	beq	r2,zero,422e8 <___vfprintf_internal_r+0x1484>
   41640:	00c00c04 	movi	r3,48
   41644:	d8c12505 	stb	r3,1172(sp)
   41648:	dc812545 	stb	r18,1173(sp)
   4164c:	84000094 	ori	r16,r16,2
   41650:	00c00084 	movi	r3,2
   41654:	d8012585 	stb	zero,1174(sp)
   41658:	003ed906 	br	411c0 <__alt_data_end+0xfffda0c0>
   4165c:	84001014 	ori	r16,r16,64
   41660:	ac800007 	ldb	r18,0(r21)
   41664:	003e5d06 	br	40fdc <__alt_data_end+0xfffd9edc>
   41668:	ac800007 	ldb	r18,0(r21)
   4166c:	a805883a 	mov	r2,r21
   41670:	91c43226 	beq	r18,r7,4273c <___vfprintf_internal_r+0x18d8>
   41674:	84000414 	ori	r16,r16,16
   41678:	003e5806 	br	40fdc <__alt_data_end+0xfffd9edc>
   4167c:	d8c12d17 	ldw	r3,1204(sp)
   41680:	02000044 	movi	r8,1
   41684:	da012815 	stw	r8,1184(sp)
   41688:	18800017 	ldw	r2,0(r3)
   4168c:	18c00104 	addi	r3,r3,4
   41690:	d8012585 	stb	zero,1174(sp)
   41694:	d8810405 	stb	r2,1040(sp)
   41698:	d8c12d15 	stw	r3,1204(sp)
   4169c:	da012b15 	stw	r8,1196(sp)
   416a0:	dcc10404 	addi	r19,sp,1040
   416a4:	d8013115 	stw	zero,1220(sp)
   416a8:	003ee006 	br	4122c <__alt_data_end+0xfffda12c>
   416ac:	8080080c 	andi	r2,r16,32
   416b0:	10031026 	beq	r2,zero,422f4 <___vfprintf_internal_r+0x1490>
   416b4:	d9012d17 	ldw	r4,1204(sp)
   416b8:	da012c17 	ldw	r8,1200(sp)
   416bc:	20800017 	ldw	r2,0(r4)
   416c0:	4007d7fa 	srai	r3,r8,31
   416c4:	21000104 	addi	r4,r4,4
   416c8:	d9012d15 	stw	r4,1204(sp)
   416cc:	12000015 	stw	r8,0(r2)
   416d0:	10c00115 	stw	r3,4(r2)
   416d4:	003e1906 	br	40f3c <__alt_data_end+0xfffd9e3c>
   416d8:	da012d17 	ldw	r8,1204(sp)
   416dc:	d9012d17 	ldw	r4,1204(sp)
   416e0:	42000017 	ldw	r8,0(r8)
   416e4:	20800104 	addi	r2,r4,4
   416e8:	da012e15 	stw	r8,1208(sp)
   416ec:	403f2f16 	blt	r8,zero,413ac <__alt_data_end+0xfffda2ac>
   416f0:	d8812d15 	stw	r2,1204(sp)
   416f4:	ac800007 	ldb	r18,0(r21)
   416f8:	003e3806 	br	40fdc <__alt_data_end+0xfffd9edc>
   416fc:	0009883a 	mov	r4,zero
   41700:	90bff404 	addi	r2,r18,-48
   41704:	ac800007 	ldb	r18,0(r21)
   41708:	210002a4 	muli	r4,r4,10
   4170c:	ad400044 	addi	r21,r21,1
   41710:	2089883a 	add	r4,r4,r2
   41714:	90bff404 	addi	r2,r18,-48
   41718:	28bffa2e 	bgeu	r5,r2,41704 <__alt_data_end+0xfffda604>
   4171c:	d9012e15 	stw	r4,1208(sp)
   41720:	003e2f06 	br	40fe0 <__alt_data_end+0xfffd9ee0>
   41724:	8080020c 	andi	r2,r16,8
   41728:	1002d426 	beq	r2,zero,4227c <___vfprintf_internal_r+0x1418>
   4172c:	d8c12d17 	ldw	r3,1204(sp)
   41730:	1d800017 	ldw	r22,0(r3)
   41734:	1d000117 	ldw	r20,4(r3)
   41738:	18c00204 	addi	r3,r3,8
   4173c:	d8c12d15 	stw	r3,1204(sp)
   41740:	dd813315 	stw	r22,1228(sp)
   41744:	dd013415 	stw	r20,1232(sp)
   41748:	b009883a 	mov	r4,r22
   4174c:	a00b883a 	mov	r5,r20
   41750:	da413c15 	stw	r9,1264(sp)
   41754:	00478f80 	call	478f8 <__isinfd>
   41758:	da413c17 	ldw	r9,1264(sp)
   4175c:	b009883a 	mov	r4,r22
   41760:	a00b883a 	mov	r5,r20
   41764:	10035726 	beq	r2,zero,424c4 <___vfprintf_internal_r+0x1660>
   41768:	000d883a 	mov	r6,zero
   4176c:	000f883a 	mov	r7,zero
   41770:	00493e40 	call	493e4 <__ltdf2>
   41774:	da413c17 	ldw	r9,1264(sp)
   41778:	10041b16 	blt	r2,zero,427e8 <___vfprintf_internal_r+0x1984>
   4177c:	d8812583 	ldbu	r2,1174(sp)
   41780:	00c011c4 	movi	r3,71
   41784:	1c830b16 	blt	r3,r18,423b4 <___vfprintf_internal_r+0x1550>
   41788:	04c00174 	movhi	r19,5
   4178c:	9cf0c304 	addi	r19,r19,-15604
   41790:	020000c4 	movi	r8,3
   41794:	00ffdfc4 	movi	r3,-129
   41798:	da012815 	stw	r8,1184(sp)
   4179c:	80e0703a 	and	r16,r16,r3
   417a0:	da012b15 	stw	r8,1196(sp)
   417a4:	d8013115 	stw	zero,1220(sp)
   417a8:	003e9906 	br	41210 <__alt_data_end+0xfffda110>
   417ac:	d8812d17 	ldw	r2,1204(sp)
   417b0:	d8c12d17 	ldw	r3,1204(sp)
   417b4:	02000174 	movhi	r8,5
   417b8:	4230cc04 	addi	r8,r8,-15568
   417bc:	15c00017 	ldw	r23,0(r2)
   417c0:	00800c04 	movi	r2,48
   417c4:	18c00104 	addi	r3,r3,4
   417c8:	d8812505 	stb	r2,1172(sp)
   417cc:	00801e04 	movi	r2,120
   417d0:	d8812545 	stb	r2,1173(sp)
   417d4:	d8c12d15 	stw	r3,1204(sp)
   417d8:	002d883a 	mov	r22,zero
   417dc:	84000094 	ori	r16,r16,2
   417e0:	da013615 	stw	r8,1240(sp)
   417e4:	00c00084 	movi	r3,2
   417e8:	04801e04 	movi	r18,120
   417ec:	b805883a 	mov	r2,r23
   417f0:	d8012585 	stb	zero,1174(sp)
   417f4:	003e7206 	br	411c0 <__alt_data_end+0xfffda0c0>
   417f8:	84000814 	ori	r16,r16,32
   417fc:	ac800007 	ldb	r18,0(r21)
   41800:	003df606 	br	40fdc <__alt_data_end+0xfffd9edc>
   41804:	d8812d17 	ldw	r2,1204(sp)
   41808:	d8012585 	stb	zero,1174(sp)
   4180c:	14c00017 	ldw	r19,0(r2)
   41810:	15c00104 	addi	r23,r2,4
   41814:	98040126 	beq	r19,zero,4281c <___vfprintf_internal_r+0x19b8>
   41818:	9809883a 	mov	r4,r19
   4181c:	e003dd16 	blt	fp,zero,42794 <___vfprintf_internal_r+0x1930>
   41820:	000b883a 	mov	r5,zero
   41824:	e00d883a 	mov	r6,fp
   41828:	da413c15 	stw	r9,1264(sp)
   4182c:	0045f600 	call	45f60 <memchr>
   41830:	da413c17 	ldw	r9,1264(sp)
   41834:	10042e26 	beq	r2,zero,428f0 <___vfprintf_internal_r+0x1a8c>
   41838:	14c5c83a 	sub	r2,r2,r19
   4183c:	d8812b15 	stw	r2,1196(sp)
   41840:	e083790e 	bge	fp,r2,42628 <___vfprintf_internal_r+0x17c4>
   41844:	df012815 	stw	fp,1184(sp)
   41848:	e0049516 	blt	fp,zero,42aa0 <___vfprintf_internal_r+0x1c3c>
   4184c:	d8812583 	ldbu	r2,1174(sp)
   41850:	df012b15 	stw	fp,1196(sp)
   41854:	ddc12d15 	stw	r23,1204(sp)
   41858:	d8013115 	stw	zero,1220(sp)
   4185c:	003e6c06 	br	41210 <__alt_data_end+0xfffda110>
   41860:	02000174 	movhi	r8,5
   41864:	4230cc04 	addi	r8,r8,-15568
   41868:	da013615 	stw	r8,1240(sp)
   4186c:	8080080c 	andi	r2,r16,32
   41870:	103f6a1e 	bne	r2,zero,4161c <__alt_data_end+0xfffda51c>
   41874:	8080040c 	andi	r2,r16,16
   41878:	10029326 	beq	r2,zero,422c8 <___vfprintf_internal_r+0x1464>
   4187c:	d8c12d17 	ldw	r3,1204(sp)
   41880:	002d883a 	mov	r22,zero
   41884:	1dc00017 	ldw	r23,0(r3)
   41888:	18c00104 	addi	r3,r3,4
   4188c:	d8c12d15 	stw	r3,1204(sp)
   41890:	003f6706 	br	41630 <__alt_data_end+0xfffda530>
   41894:	84000214 	ori	r16,r16,8
   41898:	ac800007 	ldb	r18,0(r21)
   4189c:	003dcf06 	br	40fdc <__alt_data_end+0xfffd9edc>
   418a0:	da011d17 	ldw	r8,1140(sp)
   418a4:	d8c11c17 	ldw	r3,1136(sp)
   418a8:	d8812587 	ldb	r2,1174(sp)
   418ac:	10000b26 	beq	r2,zero,418dc <___vfprintf_internal_r+0xa78>
   418b0:	d8812584 	addi	r2,sp,1174
   418b4:	48800015 	stw	r2,0(r9)
   418b8:	00800044 	movi	r2,1
   418bc:	48800115 	stw	r2,4(r9)
   418c0:	4091883a 	add	r8,r8,r2
   418c4:	1887883a 	add	r3,r3,r2
   418c8:	da011d15 	stw	r8,1140(sp)
   418cc:	d8c11c15 	stw	r3,1136(sp)
   418d0:	008001c4 	movi	r2,7
   418d4:	10c18516 	blt	r2,r3,41eec <___vfprintf_internal_r+0x1088>
   418d8:	4a400204 	addi	r9,r9,8
   418dc:	d9012a17 	ldw	r4,1192(sp)
   418e0:	20000b26 	beq	r4,zero,41910 <___vfprintf_internal_r+0xaac>
   418e4:	d8812504 	addi	r2,sp,1172
   418e8:	48800015 	stw	r2,0(r9)
   418ec:	00800084 	movi	r2,2
   418f0:	48800115 	stw	r2,4(r9)
   418f4:	4091883a 	add	r8,r8,r2
   418f8:	18c00044 	addi	r3,r3,1
   418fc:	da011d15 	stw	r8,1140(sp)
   41900:	d8c11c15 	stw	r3,1136(sp)
   41904:	008001c4 	movi	r2,7
   41908:	10c18116 	blt	r2,r3,41f10 <___vfprintf_internal_r+0x10ac>
   4190c:	4a400204 	addi	r9,r9,8
   41910:	d9012f17 	ldw	r4,1212(sp)
   41914:	00802004 	movi	r2,128
   41918:	2080fc26 	beq	r4,r2,41d0c <___vfprintf_internal_r+0xea8>
   4191c:	d8813117 	ldw	r2,1220(sp)
   41920:	d9012b17 	ldw	r4,1196(sp)
   41924:	112fc83a 	sub	r23,r2,r4
   41928:	05c02a0e 	bge	zero,r23,419d4 <___vfprintf_internal_r+0xb70>
   4192c:	07000404 	movi	fp,16
   41930:	05000174 	movhi	r20,5
   41934:	a530d784 	addi	r20,r20,-15522
   41938:	e5c01d0e 	bge	fp,r23,419b0 <___vfprintf_internal_r+0xb4c>
   4193c:	dc812a15 	stw	r18,1192(sp)
   41940:	058001c4 	movi	r22,7
   41944:	a025883a 	mov	r18,r20
   41948:	8029883a 	mov	r20,r16
   4194c:	dc012917 	ldw	r16,1188(sp)
   41950:	00000306 	br	41960 <___vfprintf_internal_r+0xafc>
   41954:	bdfffc04 	addi	r23,r23,-16
   41958:	4a400204 	addi	r9,r9,8
   4195c:	e5c0110e 	bge	fp,r23,419a4 <___vfprintf_internal_r+0xb40>
   41960:	4c800015 	stw	r18,0(r9)
   41964:	4f000115 	stw	fp,4(r9)
   41968:	42000404 	addi	r8,r8,16
   4196c:	18c00044 	addi	r3,r3,1
   41970:	da011d15 	stw	r8,1140(sp)
   41974:	d8c11c15 	stw	r3,1136(sp)
   41978:	b0fff60e 	bge	r22,r3,41954 <__alt_data_end+0xfffda854>
   4197c:	8809883a 	mov	r4,r17
   41980:	800b883a 	mov	r5,r16
   41984:	d9811b04 	addi	r6,sp,1132
   41988:	0040e300 	call	40e30 <__sprint_r>
   4198c:	103ec81e 	bne	r2,zero,414b0 <__alt_data_end+0xfffda3b0>
   41990:	bdfffc04 	addi	r23,r23,-16
   41994:	da011d17 	ldw	r8,1140(sp)
   41998:	d8c11c17 	ldw	r3,1136(sp)
   4199c:	da400404 	addi	r9,sp,16
   419a0:	e5ffef16 	blt	fp,r23,41960 <__alt_data_end+0xfffda860>
   419a4:	a021883a 	mov	r16,r20
   419a8:	9029883a 	mov	r20,r18
   419ac:	dc812a17 	ldw	r18,1192(sp)
   419b0:	4d000015 	stw	r20,0(r9)
   419b4:	4dc00115 	stw	r23,4(r9)
   419b8:	45d1883a 	add	r8,r8,r23
   419bc:	18c00044 	addi	r3,r3,1
   419c0:	da011d15 	stw	r8,1140(sp)
   419c4:	d8c11c15 	stw	r3,1136(sp)
   419c8:	008001c4 	movi	r2,7
   419cc:	10c13e16 	blt	r2,r3,41ec8 <___vfprintf_internal_r+0x1064>
   419d0:	4a400204 	addi	r9,r9,8
   419d4:	8080400c 	andi	r2,r16,256
   419d8:	1000831e 	bne	r2,zero,41be8 <___vfprintf_internal_r+0xd84>
   419dc:	d8812b17 	ldw	r2,1196(sp)
   419e0:	4cc00015 	stw	r19,0(r9)
   419e4:	48800115 	stw	r2,4(r9)
   419e8:	4091883a 	add	r8,r8,r2
   419ec:	18c00044 	addi	r3,r3,1
   419f0:	da011d15 	stw	r8,1140(sp)
   419f4:	d8c11c15 	stw	r3,1136(sp)
   419f8:	008001c4 	movi	r2,7
   419fc:	10c05316 	blt	r2,r3,41b4c <___vfprintf_internal_r+0xce8>
   41a00:	4a400204 	addi	r9,r9,8
   41a04:	8400010c 	andi	r16,r16,4
   41a08:	80002e26 	beq	r16,zero,41ac4 <___vfprintf_internal_r+0xc60>
   41a0c:	d8812e17 	ldw	r2,1208(sp)
   41a10:	d8c12817 	ldw	r3,1184(sp)
   41a14:	10e1c83a 	sub	r16,r2,r3
   41a18:	04002a0e 	bge	zero,r16,41ac4 <___vfprintf_internal_r+0xc60>
   41a1c:	04800404 	movi	r18,16
   41a20:	d8c11c17 	ldw	r3,1136(sp)
   41a24:	05c00174 	movhi	r23,5
   41a28:	bdf0d384 	addi	r23,r23,-15538
   41a2c:	9400170e 	bge	r18,r16,41a8c <___vfprintf_internal_r+0xc28>
   41a30:	04c001c4 	movi	r19,7
   41a34:	dd012917 	ldw	r20,1188(sp)
   41a38:	00000306 	br	41a48 <___vfprintf_internal_r+0xbe4>
   41a3c:	843ffc04 	addi	r16,r16,-16
   41a40:	4a400204 	addi	r9,r9,8
   41a44:	9400110e 	bge	r18,r16,41a8c <___vfprintf_internal_r+0xc28>
   41a48:	4dc00015 	stw	r23,0(r9)
   41a4c:	4c800115 	stw	r18,4(r9)
   41a50:	42000404 	addi	r8,r8,16
   41a54:	18c00044 	addi	r3,r3,1
   41a58:	da011d15 	stw	r8,1140(sp)
   41a5c:	d8c11c15 	stw	r3,1136(sp)
   41a60:	98fff60e 	bge	r19,r3,41a3c <__alt_data_end+0xfffda93c>
   41a64:	8809883a 	mov	r4,r17
   41a68:	a00b883a 	mov	r5,r20
   41a6c:	d9811b04 	addi	r6,sp,1132
   41a70:	0040e300 	call	40e30 <__sprint_r>
   41a74:	103e8e1e 	bne	r2,zero,414b0 <__alt_data_end+0xfffda3b0>
   41a78:	843ffc04 	addi	r16,r16,-16
   41a7c:	da011d17 	ldw	r8,1140(sp)
   41a80:	d8c11c17 	ldw	r3,1136(sp)
   41a84:	da400404 	addi	r9,sp,16
   41a88:	943fef16 	blt	r18,r16,41a48 <__alt_data_end+0xfffda948>
   41a8c:	4dc00015 	stw	r23,0(r9)
   41a90:	4c000115 	stw	r16,4(r9)
   41a94:	8211883a 	add	r8,r16,r8
   41a98:	18c00044 	addi	r3,r3,1
   41a9c:	da011d15 	stw	r8,1140(sp)
   41aa0:	d8c11c15 	stw	r3,1136(sp)
   41aa4:	008001c4 	movi	r2,7
   41aa8:	10c0060e 	bge	r2,r3,41ac4 <___vfprintf_internal_r+0xc60>
   41aac:	d9412917 	ldw	r5,1188(sp)
   41ab0:	8809883a 	mov	r4,r17
   41ab4:	d9811b04 	addi	r6,sp,1132
   41ab8:	0040e300 	call	40e30 <__sprint_r>
   41abc:	103e7c1e 	bne	r2,zero,414b0 <__alt_data_end+0xfffda3b0>
   41ac0:	da011d17 	ldw	r8,1140(sp)
   41ac4:	dd012817 	ldw	r20,1184(sp)
   41ac8:	d9012e17 	ldw	r4,1208(sp)
   41acc:	a100010e 	bge	r20,r4,41ad4 <___vfprintf_internal_r+0xc70>
   41ad0:	2029883a 	mov	r20,r4
   41ad4:	d8812c17 	ldw	r2,1200(sp)
   41ad8:	1505883a 	add	r2,r2,r20
   41adc:	d8812c15 	stw	r2,1200(sp)
   41ae0:	4000b91e 	bne	r8,zero,41dc8 <___vfprintf_internal_r+0xf64>
   41ae4:	d8011c15 	stw	zero,1136(sp)
   41ae8:	a8800007 	ldb	r2,0(r21)
   41aec:	da400404 	addi	r9,sp,16
   41af0:	103d141e 	bne	r2,zero,40f44 <__alt_data_end+0xfffd9e44>
   41af4:	a825883a 	mov	r18,r21
   41af8:	003d2a06 	br	40fa4 <__alt_data_end+0xfffd9ea4>
   41afc:	d9412917 	ldw	r5,1188(sp)
   41b00:	8809883a 	mov	r4,r17
   41b04:	d9811b04 	addi	r6,sp,1132
   41b08:	0040e300 	call	40e30 <__sprint_r>
   41b0c:	103e681e 	bne	r2,zero,414b0 <__alt_data_end+0xfffda3b0>
   41b10:	da011d17 	ldw	r8,1140(sp)
   41b14:	da400404 	addi	r9,sp,16
   41b18:	8080004c 	andi	r2,r16,1
   41b1c:	103fb926 	beq	r2,zero,41a04 <__alt_data_end+0xfffda904>
   41b20:	d8c11c17 	ldw	r3,1136(sp)
   41b24:	d9013717 	ldw	r4,1244(sp)
   41b28:	00800044 	movi	r2,1
   41b2c:	48800115 	stw	r2,4(r9)
   41b30:	49000015 	stw	r4,0(r9)
   41b34:	4091883a 	add	r8,r8,r2
   41b38:	1887883a 	add	r3,r3,r2
   41b3c:	da011d15 	stw	r8,1140(sp)
   41b40:	d8c11c15 	stw	r3,1136(sp)
   41b44:	008001c4 	movi	r2,7
   41b48:	10ffad0e 	bge	r2,r3,41a00 <__alt_data_end+0xfffda900>
   41b4c:	d9412917 	ldw	r5,1188(sp)
   41b50:	8809883a 	mov	r4,r17
   41b54:	d9811b04 	addi	r6,sp,1132
   41b58:	0040e300 	call	40e30 <__sprint_r>
   41b5c:	103e541e 	bne	r2,zero,414b0 <__alt_data_end+0xfffda3b0>
   41b60:	da400404 	addi	r9,sp,16
   41b64:	da011d17 	ldw	r8,1140(sp)
   41b68:	003fa606 	br	41a04 <__alt_data_end+0xfffda904>
   41b6c:	18803fcc 	andi	r2,r3,255
   41b70:	00c00044 	movi	r3,1
   41b74:	10c10126 	beq	r2,r3,41f7c <___vfprintf_internal_r+0x1118>
   41b78:	00c00084 	movi	r3,2
   41b7c:	10c0f026 	beq	r2,r3,41f40 <___vfprintf_internal_r+0x10dc>
   41b80:	d8c10dc4 	addi	r3,sp,1079
   41b84:	b808d0fa 	srli	r4,r23,3
   41b88:	b00a977a 	slli	r5,r22,29
   41b8c:	b02cd0fa 	srli	r22,r22,3
   41b90:	bdc001cc 	andi	r23,r23,7
   41b94:	b8800c04 	addi	r2,r23,48
   41b98:	292eb03a 	or	r23,r5,r4
   41b9c:	18800005 	stb	r2,0(r3)
   41ba0:	bd88b03a 	or	r4,r23,r22
   41ba4:	1827883a 	mov	r19,r3
   41ba8:	18ffffc4 	addi	r3,r3,-1
   41bac:	203ff51e 	bne	r4,zero,41b84 <__alt_data_end+0xfffdaa84>
   41bb0:	8100004c 	andi	r4,r16,1
   41bb4:	980b883a 	mov	r5,r19
   41bb8:	20000726 	beq	r4,zero,41bd8 <___vfprintf_internal_r+0xd74>
   41bbc:	10803fcc 	andi	r2,r2,255
   41bc0:	1080201c 	xori	r2,r2,128
   41bc4:	10bfe004 	addi	r2,r2,-128
   41bc8:	01000c04 	movi	r4,48
   41bcc:	11000226 	beq	r2,r4,41bd8 <___vfprintf_internal_r+0xd74>
   41bd0:	1827883a 	mov	r19,r3
   41bd4:	293fffc5 	stb	r4,-1(r5)
   41bd8:	d8812717 	ldw	r2,1180(sp)
   41bdc:	14c5c83a 	sub	r2,r2,r19
   41be0:	d8812b15 	stw	r2,1196(sp)
   41be4:	003d8406 	br	411f8 <__alt_data_end+0xfffda0f8>
   41be8:	00801944 	movi	r2,101
   41bec:	14807c0e 	bge	r2,r18,41de0 <___vfprintf_internal_r+0xf7c>
   41bf0:	d9013317 	ldw	r4,1228(sp)
   41bf4:	d9413417 	ldw	r5,1232(sp)
   41bf8:	000d883a 	mov	r6,zero
   41bfc:	000f883a 	mov	r7,zero
   41c00:	d8c13b15 	stw	r3,1260(sp)
   41c04:	da013a15 	stw	r8,1256(sp)
   41c08:	da413c15 	stw	r9,1264(sp)
   41c0c:	00492c00 	call	492c0 <__nedf2>
   41c10:	d8c13b17 	ldw	r3,1260(sp)
   41c14:	da013a17 	ldw	r8,1256(sp)
   41c18:	da413c17 	ldw	r9,1264(sp)
   41c1c:	1001001e 	bne	r2,zero,42020 <___vfprintf_internal_r+0x11bc>
   41c20:	00800174 	movhi	r2,5
   41c24:	10b0d304 	addi	r2,r2,-15540
   41c28:	48800015 	stw	r2,0(r9)
   41c2c:	00800044 	movi	r2,1
   41c30:	48800115 	stw	r2,4(r9)
   41c34:	4091883a 	add	r8,r8,r2
   41c38:	1887883a 	add	r3,r3,r2
   41c3c:	da011d15 	stw	r8,1140(sp)
   41c40:	d8c11c15 	stw	r3,1136(sp)
   41c44:	008001c4 	movi	r2,7
   41c48:	10c1dd16 	blt	r2,r3,423c0 <___vfprintf_internal_r+0x155c>
   41c4c:	4a400204 	addi	r9,r9,8
   41c50:	d8812417 	ldw	r2,1168(sp)
   41c54:	d8c13217 	ldw	r3,1224(sp)
   41c58:	10c00216 	blt	r2,r3,41c64 <___vfprintf_internal_r+0xe00>
   41c5c:	8080004c 	andi	r2,r16,1
   41c60:	103f6826 	beq	r2,zero,41a04 <__alt_data_end+0xfffda904>
   41c64:	d8c11c17 	ldw	r3,1136(sp)
   41c68:	d9013717 	ldw	r4,1244(sp)
   41c6c:	00800044 	movi	r2,1
   41c70:	48800115 	stw	r2,4(r9)
   41c74:	49000015 	stw	r4,0(r9)
   41c78:	4091883a 	add	r8,r8,r2
   41c7c:	1887883a 	add	r3,r3,r2
   41c80:	da011d15 	stw	r8,1140(sp)
   41c84:	d8c11c15 	stw	r3,1136(sp)
   41c88:	008001c4 	movi	r2,7
   41c8c:	10c2af16 	blt	r2,r3,4274c <___vfprintf_internal_r+0x18e8>
   41c90:	4a400204 	addi	r9,r9,8
   41c94:	d8813217 	ldw	r2,1224(sp)
   41c98:	14bfffc4 	addi	r18,r2,-1
   41c9c:	04bf590e 	bge	zero,r18,41a04 <__alt_data_end+0xfffda904>
   41ca0:	04c00404 	movi	r19,16
   41ca4:	d8c11c17 	ldw	r3,1136(sp)
   41ca8:	05000174 	movhi	r20,5
   41cac:	a530d784 	addi	r20,r20,-15522
   41cb0:	9c81630e 	bge	r19,r18,42240 <___vfprintf_internal_r+0x13dc>
   41cb4:	058001c4 	movi	r22,7
   41cb8:	ddc12917 	ldw	r23,1188(sp)
   41cbc:	00000306 	br	41ccc <___vfprintf_internal_r+0xe68>
   41cc0:	4a400204 	addi	r9,r9,8
   41cc4:	94bffc04 	addi	r18,r18,-16
   41cc8:	9c815d0e 	bge	r19,r18,42240 <___vfprintf_internal_r+0x13dc>
   41ccc:	4d000015 	stw	r20,0(r9)
   41cd0:	4cc00115 	stw	r19,4(r9)
   41cd4:	42000404 	addi	r8,r8,16
   41cd8:	18c00044 	addi	r3,r3,1
   41cdc:	da011d15 	stw	r8,1140(sp)
   41ce0:	d8c11c15 	stw	r3,1136(sp)
   41ce4:	b0fff60e 	bge	r22,r3,41cc0 <__alt_data_end+0xfffdabc0>
   41ce8:	8809883a 	mov	r4,r17
   41cec:	b80b883a 	mov	r5,r23
   41cf0:	d9811b04 	addi	r6,sp,1132
   41cf4:	0040e300 	call	40e30 <__sprint_r>
   41cf8:	103ded1e 	bne	r2,zero,414b0 <__alt_data_end+0xfffda3b0>
   41cfc:	da011d17 	ldw	r8,1140(sp)
   41d00:	d8c11c17 	ldw	r3,1136(sp)
   41d04:	da400404 	addi	r9,sp,16
   41d08:	003fee06 	br	41cc4 <__alt_data_end+0xfffdabc4>
   41d0c:	d8812e17 	ldw	r2,1208(sp)
   41d10:	d9012817 	ldw	r4,1184(sp)
   41d14:	112fc83a 	sub	r23,r2,r4
   41d18:	05ff000e 	bge	zero,r23,4191c <__alt_data_end+0xfffda81c>
   41d1c:	07000404 	movi	fp,16
   41d20:	05000174 	movhi	r20,5
   41d24:	a530d784 	addi	r20,r20,-15522
   41d28:	e5c01d0e 	bge	fp,r23,41da0 <___vfprintf_internal_r+0xf3c>
   41d2c:	dc812a15 	stw	r18,1192(sp)
   41d30:	058001c4 	movi	r22,7
   41d34:	a025883a 	mov	r18,r20
   41d38:	8029883a 	mov	r20,r16
   41d3c:	dc012917 	ldw	r16,1188(sp)
   41d40:	00000306 	br	41d50 <___vfprintf_internal_r+0xeec>
   41d44:	bdfffc04 	addi	r23,r23,-16
   41d48:	4a400204 	addi	r9,r9,8
   41d4c:	e5c0110e 	bge	fp,r23,41d94 <___vfprintf_internal_r+0xf30>
   41d50:	4c800015 	stw	r18,0(r9)
   41d54:	4f000115 	stw	fp,4(r9)
   41d58:	42000404 	addi	r8,r8,16
   41d5c:	18c00044 	addi	r3,r3,1
   41d60:	da011d15 	stw	r8,1140(sp)
   41d64:	d8c11c15 	stw	r3,1136(sp)
   41d68:	b0fff60e 	bge	r22,r3,41d44 <__alt_data_end+0xfffdac44>
   41d6c:	8809883a 	mov	r4,r17
   41d70:	800b883a 	mov	r5,r16
   41d74:	d9811b04 	addi	r6,sp,1132
   41d78:	0040e300 	call	40e30 <__sprint_r>
   41d7c:	103dcc1e 	bne	r2,zero,414b0 <__alt_data_end+0xfffda3b0>
   41d80:	bdfffc04 	addi	r23,r23,-16
   41d84:	da011d17 	ldw	r8,1140(sp)
   41d88:	d8c11c17 	ldw	r3,1136(sp)
   41d8c:	da400404 	addi	r9,sp,16
   41d90:	e5ffef16 	blt	fp,r23,41d50 <__alt_data_end+0xfffdac50>
   41d94:	a021883a 	mov	r16,r20
   41d98:	9029883a 	mov	r20,r18
   41d9c:	dc812a17 	ldw	r18,1192(sp)
   41da0:	4d000015 	stw	r20,0(r9)
   41da4:	4dc00115 	stw	r23,4(r9)
   41da8:	45d1883a 	add	r8,r8,r23
   41dac:	18c00044 	addi	r3,r3,1
   41db0:	da011d15 	stw	r8,1140(sp)
   41db4:	d8c11c15 	stw	r3,1136(sp)
   41db8:	008001c4 	movi	r2,7
   41dbc:	10c11716 	blt	r2,r3,4221c <___vfprintf_internal_r+0x13b8>
   41dc0:	4a400204 	addi	r9,r9,8
   41dc4:	003ed506 	br	4191c <__alt_data_end+0xfffda81c>
   41dc8:	d9412917 	ldw	r5,1188(sp)
   41dcc:	8809883a 	mov	r4,r17
   41dd0:	d9811b04 	addi	r6,sp,1132
   41dd4:	0040e300 	call	40e30 <__sprint_r>
   41dd8:	103f4226 	beq	r2,zero,41ae4 <__alt_data_end+0xfffda9e4>
   41ddc:	003db406 	br	414b0 <__alt_data_end+0xfffda3b0>
   41de0:	d9013217 	ldw	r4,1224(sp)
   41de4:	00800044 	movi	r2,1
   41de8:	4cc00015 	stw	r19,0(r9)
   41dec:	1100e10e 	bge	r2,r4,42174 <___vfprintf_internal_r+0x1310>
   41df0:	00800044 	movi	r2,1
   41df4:	48800115 	stw	r2,4(r9)
   41df8:	4091883a 	add	r8,r8,r2
   41dfc:	1887883a 	add	r3,r3,r2
   41e00:	da011d15 	stw	r8,1140(sp)
   41e04:	d8c11c15 	stw	r3,1136(sp)
   41e08:	008001c4 	movi	r2,7
   41e0c:	10c0ed16 	blt	r2,r3,421c4 <___vfprintf_internal_r+0x1360>
   41e10:	4a400204 	addi	r9,r9,8
   41e14:	d8813717 	ldw	r2,1244(sp)
   41e18:	48800015 	stw	r2,0(r9)
   41e1c:	00800044 	movi	r2,1
   41e20:	48800115 	stw	r2,4(r9)
   41e24:	4091883a 	add	r8,r8,r2
   41e28:	1887883a 	add	r3,r3,r2
   41e2c:	da011d15 	stw	r8,1140(sp)
   41e30:	d8c11c15 	stw	r3,1136(sp)
   41e34:	008001c4 	movi	r2,7
   41e38:	10c0eb16 	blt	r2,r3,421e8 <___vfprintf_internal_r+0x1384>
   41e3c:	4c800204 	addi	r18,r9,8
   41e40:	d9013317 	ldw	r4,1228(sp)
   41e44:	d9413417 	ldw	r5,1232(sp)
   41e48:	000d883a 	mov	r6,zero
   41e4c:	000f883a 	mov	r7,zero
   41e50:	d8c13b15 	stw	r3,1260(sp)
   41e54:	da013a15 	stw	r8,1256(sp)
   41e58:	00492640 	call	49264 <__eqdf2>
   41e5c:	d8c13b17 	ldw	r3,1260(sp)
   41e60:	da013a17 	ldw	r8,1256(sp)
   41e64:	1000a626 	beq	r2,zero,42100 <___vfprintf_internal_r+0x129c>
   41e68:	d9013217 	ldw	r4,1224(sp)
   41e6c:	9cc00044 	addi	r19,r19,1
   41e70:	94c00015 	stw	r19,0(r18)
   41e74:	20bfffc4 	addi	r2,r4,-1
   41e78:	90800115 	stw	r2,4(r18)
   41e7c:	4091883a 	add	r8,r8,r2
   41e80:	18c00044 	addi	r3,r3,1
   41e84:	da011d15 	stw	r8,1140(sp)
   41e88:	d8c11c15 	stw	r3,1136(sp)
   41e8c:	008001c4 	movi	r2,7
   41e90:	10c0c316 	blt	r2,r3,421a0 <___vfprintf_internal_r+0x133c>
   41e94:	94800204 	addi	r18,r18,8
   41e98:	d9013517 	ldw	r4,1236(sp)
   41e9c:	d8811fc4 	addi	r2,sp,1151
   41ea0:	90800015 	stw	r2,0(r18)
   41ea4:	91000115 	stw	r4,4(r18)
   41ea8:	4111883a 	add	r8,r8,r4
   41eac:	18c00044 	addi	r3,r3,1
   41eb0:	da011d15 	stw	r8,1140(sp)
   41eb4:	d8c11c15 	stw	r3,1136(sp)
   41eb8:	008001c4 	movi	r2,7
   41ebc:	10ff2316 	blt	r2,r3,41b4c <__alt_data_end+0xfffdaa4c>
   41ec0:	92400204 	addi	r9,r18,8
   41ec4:	003ecf06 	br	41a04 <__alt_data_end+0xfffda904>
   41ec8:	d9412917 	ldw	r5,1188(sp)
   41ecc:	8809883a 	mov	r4,r17
   41ed0:	d9811b04 	addi	r6,sp,1132
   41ed4:	0040e300 	call	40e30 <__sprint_r>
   41ed8:	103d751e 	bne	r2,zero,414b0 <__alt_data_end+0xfffda3b0>
   41edc:	da011d17 	ldw	r8,1140(sp)
   41ee0:	d8c11c17 	ldw	r3,1136(sp)
   41ee4:	da400404 	addi	r9,sp,16
   41ee8:	003eba06 	br	419d4 <__alt_data_end+0xfffda8d4>
   41eec:	d9412917 	ldw	r5,1188(sp)
   41ef0:	8809883a 	mov	r4,r17
   41ef4:	d9811b04 	addi	r6,sp,1132
   41ef8:	0040e300 	call	40e30 <__sprint_r>
   41efc:	103d6c1e 	bne	r2,zero,414b0 <__alt_data_end+0xfffda3b0>
   41f00:	da011d17 	ldw	r8,1140(sp)
   41f04:	d8c11c17 	ldw	r3,1136(sp)
   41f08:	da400404 	addi	r9,sp,16
   41f0c:	003e7306 	br	418dc <__alt_data_end+0xfffda7dc>
   41f10:	d9412917 	ldw	r5,1188(sp)
   41f14:	8809883a 	mov	r4,r17
   41f18:	d9811b04 	addi	r6,sp,1132
   41f1c:	0040e300 	call	40e30 <__sprint_r>
   41f20:	103d631e 	bne	r2,zero,414b0 <__alt_data_end+0xfffda3b0>
   41f24:	da011d17 	ldw	r8,1140(sp)
   41f28:	d8c11c17 	ldw	r3,1136(sp)
   41f2c:	da400404 	addi	r9,sp,16
   41f30:	003e7706 	br	41910 <__alt_data_end+0xfffda810>
   41f34:	d8012b15 	stw	zero,1196(sp)
   41f38:	dcc10e04 	addi	r19,sp,1080
   41f3c:	003cae06 	br	411f8 <__alt_data_end+0xfffda0f8>
   41f40:	d9413617 	ldw	r5,1240(sp)
   41f44:	d8810dc4 	addi	r2,sp,1079
   41f48:	b8c003cc 	andi	r3,r23,15
   41f4c:	b008973a 	slli	r4,r22,28
   41f50:	28c7883a 	add	r3,r5,r3
   41f54:	b82ed13a 	srli	r23,r23,4
   41f58:	18c00003 	ldbu	r3,0(r3)
   41f5c:	b02cd13a 	srli	r22,r22,4
   41f60:	25eeb03a 	or	r23,r4,r23
   41f64:	10c00005 	stb	r3,0(r2)
   41f68:	bd86b03a 	or	r3,r23,r22
   41f6c:	1027883a 	mov	r19,r2
   41f70:	10bfffc4 	addi	r2,r2,-1
   41f74:	183ff41e 	bne	r3,zero,41f48 <__alt_data_end+0xfffdae48>
   41f78:	003f1706 	br	41bd8 <__alt_data_end+0xfffdaad8>
   41f7c:	b0025826 	beq	r22,zero,428e0 <___vfprintf_internal_r+0x1a7c>
   41f80:	b807883a 	mov	r3,r23
   41f84:	d8810dc4 	addi	r2,sp,1079
   41f88:	882f883a 	mov	r23,r17
   41f8c:	04c00244 	movi	r19,9
   41f90:	8023883a 	mov	r17,r16
   41f94:	da412815 	stw	r9,1184(sp)
   41f98:	1821883a 	mov	r16,r3
   41f9c:	8009883a 	mov	r4,r16
   41fa0:	b00b883a 	mov	r5,r22
   41fa4:	01800284 	movi	r6,10
   41fa8:	000f883a 	mov	r7,zero
   41fac:	1029883a 	mov	r20,r2
   41fb0:	00485ec0 	call	485ec <__umoddi3>
   41fb4:	10800c04 	addi	r2,r2,48
   41fb8:	8009883a 	mov	r4,r16
   41fbc:	b00b883a 	mov	r5,r22
   41fc0:	a0800005 	stb	r2,0(r20)
   41fc4:	01800284 	movi	r6,10
   41fc8:	000f883a 	mov	r7,zero
   41fcc:	00480240 	call	48024 <__udivdi3>
   41fd0:	1021883a 	mov	r16,r2
   41fd4:	182d883a 	mov	r22,r3
   41fd8:	a0bfffc4 	addi	r2,r20,-1
   41fdc:	183fef1e 	bne	r3,zero,41f9c <__alt_data_end+0xfffdae9c>
   41fe0:	9c3fee36 	bltu	r19,r16,41f9c <__alt_data_end+0xfffdae9c>
   41fe4:	da412817 	ldw	r9,1184(sp)
   41fe8:	8005883a 	mov	r2,r16
   41fec:	8821883a 	mov	r16,r17
   41ff0:	b823883a 	mov	r17,r23
   41ff4:	102f883a 	mov	r23,r2
   41ff8:	d8812717 	ldw	r2,1180(sp)
   41ffc:	a4ffffc4 	addi	r19,r20,-1
   42000:	bdc00c04 	addi	r23,r23,48
   42004:	14c5c83a 	sub	r2,r2,r19
   42008:	a5ffffc5 	stb	r23,-1(r20)
   4200c:	d8812b15 	stw	r2,1196(sp)
   42010:	003c7906 	br	411f8 <__alt_data_end+0xfffda0f8>
   42014:	00c00044 	movi	r3,1
   42018:	bd84b03a 	or	r2,r23,r22
   4201c:	003c6806 	br	411c0 <__alt_data_end+0xfffda0c0>
   42020:	dc812417 	ldw	r18,1168(sp)
   42024:	0480ee0e 	bge	zero,r18,423e0 <___vfprintf_internal_r+0x157c>
   42028:	d9013217 	ldw	r4,1224(sp)
   4202c:	4cc00015 	stw	r19,0(r9)
   42030:	9100c616 	blt	r18,r4,4234c <___vfprintf_internal_r+0x14e8>
   42034:	49000115 	stw	r4,4(r9)
   42038:	4111883a 	add	r8,r8,r4
   4203c:	18c00044 	addi	r3,r3,1
   42040:	da011d15 	stw	r8,1140(sp)
   42044:	d8c11c15 	stw	r3,1136(sp)
   42048:	008001c4 	movi	r2,7
   4204c:	10c20916 	blt	r2,r3,42874 <___vfprintf_internal_r+0x1a10>
   42050:	4a400204 	addi	r9,r9,8
   42054:	d8813217 	ldw	r2,1224(sp)
   42058:	90a5c83a 	sub	r18,r18,r2
   4205c:	04beae0e 	bge	zero,r18,41b18 <__alt_data_end+0xfffdaa18>
   42060:	04c00404 	movi	r19,16
   42064:	d8c11c17 	ldw	r3,1136(sp)
   42068:	05000174 	movhi	r20,5
   4206c:	a530d784 	addi	r20,r20,-15522
   42070:	9c81be0e 	bge	r19,r18,4276c <___vfprintf_internal_r+0x1908>
   42074:	058001c4 	movi	r22,7
   42078:	ddc12917 	ldw	r23,1188(sp)
   4207c:	00000306 	br	4208c <___vfprintf_internal_r+0x1228>
   42080:	4a400204 	addi	r9,r9,8
   42084:	94bffc04 	addi	r18,r18,-16
   42088:	9c81b80e 	bge	r19,r18,4276c <___vfprintf_internal_r+0x1908>
   4208c:	4d000015 	stw	r20,0(r9)
   42090:	4cc00115 	stw	r19,4(r9)
   42094:	42000404 	addi	r8,r8,16
   42098:	18c00044 	addi	r3,r3,1
   4209c:	da011d15 	stw	r8,1140(sp)
   420a0:	d8c11c15 	stw	r3,1136(sp)
   420a4:	b0fff60e 	bge	r22,r3,42080 <__alt_data_end+0xfffdaf80>
   420a8:	8809883a 	mov	r4,r17
   420ac:	b80b883a 	mov	r5,r23
   420b0:	d9811b04 	addi	r6,sp,1132
   420b4:	0040e300 	call	40e30 <__sprint_r>
   420b8:	103cfd1e 	bne	r2,zero,414b0 <__alt_data_end+0xfffda3b0>
   420bc:	da011d17 	ldw	r8,1140(sp)
   420c0:	d8c11c17 	ldw	r3,1136(sp)
   420c4:	da400404 	addi	r9,sp,16
   420c8:	003fee06 	br	42084 <__alt_data_end+0xfffdaf84>
   420cc:	d9412917 	ldw	r5,1188(sp)
   420d0:	8809883a 	mov	r4,r17
   420d4:	d9811b04 	addi	r6,sp,1132
   420d8:	0040e300 	call	40e30 <__sprint_r>
   420dc:	103cf41e 	bne	r2,zero,414b0 <__alt_data_end+0xfffda3b0>
   420e0:	da011d17 	ldw	r8,1140(sp)
   420e4:	d8c11c17 	ldw	r3,1136(sp)
   420e8:	da400404 	addi	r9,sp,16
   420ec:	003dee06 	br	418a8 <__alt_data_end+0xfffda7a8>
   420f0:	00c00084 	movi	r3,2
   420f4:	bd84b03a 	or	r2,r23,r22
   420f8:	d8012585 	stb	zero,1174(sp)
   420fc:	003c3006 	br	411c0 <__alt_data_end+0xfffda0c0>
   42100:	d8813217 	ldw	r2,1224(sp)
   42104:	14ffffc4 	addi	r19,r2,-1
   42108:	04ff630e 	bge	zero,r19,41e98 <__alt_data_end+0xfffdad98>
   4210c:	05800404 	movi	r22,16
   42110:	05000174 	movhi	r20,5
   42114:	a530d784 	addi	r20,r20,-15522
   42118:	b4c03c0e 	bge	r22,r19,4220c <___vfprintf_internal_r+0x13a8>
   4211c:	05c001c4 	movi	r23,7
   42120:	df012917 	ldw	fp,1188(sp)
   42124:	00000306 	br	42134 <___vfprintf_internal_r+0x12d0>
   42128:	94800204 	addi	r18,r18,8
   4212c:	9cfffc04 	addi	r19,r19,-16
   42130:	b4c0360e 	bge	r22,r19,4220c <___vfprintf_internal_r+0x13a8>
   42134:	95000015 	stw	r20,0(r18)
   42138:	95800115 	stw	r22,4(r18)
   4213c:	42000404 	addi	r8,r8,16
   42140:	18c00044 	addi	r3,r3,1
   42144:	da011d15 	stw	r8,1140(sp)
   42148:	d8c11c15 	stw	r3,1136(sp)
   4214c:	b8fff60e 	bge	r23,r3,42128 <__alt_data_end+0xfffdb028>
   42150:	8809883a 	mov	r4,r17
   42154:	e00b883a 	mov	r5,fp
   42158:	d9811b04 	addi	r6,sp,1132
   4215c:	0040e300 	call	40e30 <__sprint_r>
   42160:	103cd31e 	bne	r2,zero,414b0 <__alt_data_end+0xfffda3b0>
   42164:	da011d17 	ldw	r8,1140(sp)
   42168:	d8c11c17 	ldw	r3,1136(sp)
   4216c:	dc800404 	addi	r18,sp,16
   42170:	003fee06 	br	4212c <__alt_data_end+0xfffdb02c>
   42174:	8088703a 	and	r4,r16,r2
   42178:	203f1d1e 	bne	r4,zero,41df0 <__alt_data_end+0xfffdacf0>
   4217c:	48800115 	stw	r2,4(r9)
   42180:	42000044 	addi	r8,r8,1
   42184:	18c00044 	addi	r3,r3,1
   42188:	da011d15 	stw	r8,1140(sp)
   4218c:	d8c11c15 	stw	r3,1136(sp)
   42190:	008001c4 	movi	r2,7
   42194:	10c00216 	blt	r2,r3,421a0 <___vfprintf_internal_r+0x133c>
   42198:	4c800204 	addi	r18,r9,8
   4219c:	003f3e06 	br	41e98 <__alt_data_end+0xfffdad98>
   421a0:	d9412917 	ldw	r5,1188(sp)
   421a4:	8809883a 	mov	r4,r17
   421a8:	d9811b04 	addi	r6,sp,1132
   421ac:	0040e300 	call	40e30 <__sprint_r>
   421b0:	103cbf1e 	bne	r2,zero,414b0 <__alt_data_end+0xfffda3b0>
   421b4:	dc800404 	addi	r18,sp,16
   421b8:	da011d17 	ldw	r8,1140(sp)
   421bc:	d8c11c17 	ldw	r3,1136(sp)
   421c0:	003f3506 	br	41e98 <__alt_data_end+0xfffdad98>
   421c4:	d9412917 	ldw	r5,1188(sp)
   421c8:	8809883a 	mov	r4,r17
   421cc:	d9811b04 	addi	r6,sp,1132
   421d0:	0040e300 	call	40e30 <__sprint_r>
   421d4:	103cb61e 	bne	r2,zero,414b0 <__alt_data_end+0xfffda3b0>
   421d8:	da011d17 	ldw	r8,1140(sp)
   421dc:	d8c11c17 	ldw	r3,1136(sp)
   421e0:	da400404 	addi	r9,sp,16
   421e4:	003f0b06 	br	41e14 <__alt_data_end+0xfffdad14>
   421e8:	d9412917 	ldw	r5,1188(sp)
   421ec:	8809883a 	mov	r4,r17
   421f0:	d9811b04 	addi	r6,sp,1132
   421f4:	0040e300 	call	40e30 <__sprint_r>
   421f8:	103cad1e 	bne	r2,zero,414b0 <__alt_data_end+0xfffda3b0>
   421fc:	da011d17 	ldw	r8,1140(sp)
   42200:	d8c11c17 	ldw	r3,1136(sp)
   42204:	dc800404 	addi	r18,sp,16
   42208:	003f0d06 	br	41e40 <__alt_data_end+0xfffdad40>
   4220c:	95000015 	stw	r20,0(r18)
   42210:	94c00115 	stw	r19,4(r18)
   42214:	44d1883a 	add	r8,r8,r19
   42218:	003f1906 	br	41e80 <__alt_data_end+0xfffdad80>
   4221c:	d9412917 	ldw	r5,1188(sp)
   42220:	8809883a 	mov	r4,r17
   42224:	d9811b04 	addi	r6,sp,1132
   42228:	0040e300 	call	40e30 <__sprint_r>
   4222c:	103ca01e 	bne	r2,zero,414b0 <__alt_data_end+0xfffda3b0>
   42230:	da011d17 	ldw	r8,1140(sp)
   42234:	d8c11c17 	ldw	r3,1136(sp)
   42238:	da400404 	addi	r9,sp,16
   4223c:	003db706 	br	4191c <__alt_data_end+0xfffda81c>
   42240:	4d000015 	stw	r20,0(r9)
   42244:	4c800115 	stw	r18,4(r9)
   42248:	4491883a 	add	r8,r8,r18
   4224c:	003de706 	br	419ec <__alt_data_end+0xfffda8ec>
   42250:	8080100c 	andi	r2,r16,64
   42254:	10010226 	beq	r2,zero,42660 <___vfprintf_internal_r+0x17fc>
   42258:	d8812d17 	ldw	r2,1204(sp)
   4225c:	002d883a 	mov	r22,zero
   42260:	00c00044 	movi	r3,1
   42264:	15c0000b 	ldhu	r23,0(r2)
   42268:	10800104 	addi	r2,r2,4
   4226c:	d8812d15 	stw	r2,1204(sp)
   42270:	d8012585 	stb	zero,1174(sp)
   42274:	b805883a 	mov	r2,r23
   42278:	003bd106 	br	411c0 <__alt_data_end+0xfffda0c0>
   4227c:	d9012d17 	ldw	r4,1204(sp)
   42280:	25800017 	ldw	r22,0(r4)
   42284:	25000117 	ldw	r20,4(r4)
   42288:	21000204 	addi	r4,r4,8
   4228c:	d9012d15 	stw	r4,1204(sp)
   42290:	dd813315 	stw	r22,1228(sp)
   42294:	dd013415 	stw	r20,1232(sp)
   42298:	003d2b06 	br	41748 <__alt_data_end+0xfffda648>
   4229c:	8080100c 	andi	r2,r16,64
   422a0:	1000fe26 	beq	r2,zero,4269c <___vfprintf_internal_r+0x1838>
   422a4:	d9012d17 	ldw	r4,1204(sp)
   422a8:	002d883a 	mov	r22,zero
   422ac:	0007883a 	mov	r3,zero
   422b0:	25c0000b 	ldhu	r23,0(r4)
   422b4:	21000104 	addi	r4,r4,4
   422b8:	d9012d15 	stw	r4,1204(sp)
   422bc:	b805883a 	mov	r2,r23
   422c0:	d8012585 	stb	zero,1174(sp)
   422c4:	003bbe06 	br	411c0 <__alt_data_end+0xfffda0c0>
   422c8:	8080100c 	andi	r2,r16,64
   422cc:	1000ed26 	beq	r2,zero,42684 <___vfprintf_internal_r+0x1820>
   422d0:	d9012d17 	ldw	r4,1204(sp)
   422d4:	002d883a 	mov	r22,zero
   422d8:	25c0000b 	ldhu	r23,0(r4)
   422dc:	21000104 	addi	r4,r4,4
   422e0:	d9012d15 	stw	r4,1204(sp)
   422e4:	003cd206 	br	41630 <__alt_data_end+0xfffda530>
   422e8:	00c00084 	movi	r3,2
   422ec:	d8012585 	stb	zero,1174(sp)
   422f0:	003bb306 	br	411c0 <__alt_data_end+0xfffda0c0>
   422f4:	8080040c 	andi	r2,r16,16
   422f8:	1000f11e 	bne	r2,zero,426c0 <___vfprintf_internal_r+0x185c>
   422fc:	8400100c 	andi	r16,r16,64
   42300:	80015526 	beq	r16,zero,42858 <___vfprintf_internal_r+0x19f4>
   42304:	da012d17 	ldw	r8,1204(sp)
   42308:	d8c12c17 	ldw	r3,1200(sp)
   4230c:	40800017 	ldw	r2,0(r8)
   42310:	42000104 	addi	r8,r8,4
   42314:	da012d15 	stw	r8,1204(sp)
   42318:	10c0000d 	sth	r3,0(r2)
   4231c:	003b0706 	br	40f3c <__alt_data_end+0xfffd9e3c>
   42320:	8080100c 	andi	r2,r16,64
   42324:	1000c726 	beq	r2,zero,42644 <___vfprintf_internal_r+0x17e0>
   42328:	da012d17 	ldw	r8,1204(sp)
   4232c:	45c0000f 	ldh	r23,0(r8)
   42330:	42000104 	addi	r8,r8,4
   42334:	da012d15 	stw	r8,1204(sp)
   42338:	b82dd7fa 	srai	r22,r23,31
   4233c:	b005883a 	mov	r2,r22
   42340:	003c1006 	br	41384 <__alt_data_end+0xfffda284>
   42344:	ac800007 	ldb	r18,0(r21)
   42348:	003b2406 	br	40fdc <__alt_data_end+0xfffd9edc>
   4234c:	4c800115 	stw	r18,4(r9)
   42350:	9211883a 	add	r8,r18,r8
   42354:	18c00044 	addi	r3,r3,1
   42358:	da011d15 	stw	r8,1140(sp)
   4235c:	d8c11c15 	stw	r3,1136(sp)
   42360:	008001c4 	movi	r2,7
   42364:	10c15416 	blt	r2,r3,428b8 <___vfprintf_internal_r+0x1a54>
   42368:	4a400204 	addi	r9,r9,8
   4236c:	d8813717 	ldw	r2,1244(sp)
   42370:	9ca7883a 	add	r19,r19,r18
   42374:	48800015 	stw	r2,0(r9)
   42378:	00800044 	movi	r2,1
   4237c:	48800115 	stw	r2,4(r9)
   42380:	4091883a 	add	r8,r8,r2
   42384:	1887883a 	add	r3,r3,r2
   42388:	da011d15 	stw	r8,1140(sp)
   4238c:	d8c11c15 	stw	r3,1136(sp)
   42390:	008001c4 	movi	r2,7
   42394:	10c14016 	blt	r2,r3,42898 <___vfprintf_internal_r+0x1a34>
   42398:	4a400204 	addi	r9,r9,8
   4239c:	d9013217 	ldw	r4,1224(sp)
   423a0:	da011d17 	ldw	r8,1140(sp)
   423a4:	d8c11c17 	ldw	r3,1136(sp)
   423a8:	24a5c83a 	sub	r18,r4,r18
   423ac:	4cc00015 	stw	r19,0(r9)
   423b0:	003fa406 	br	42244 <__alt_data_end+0xfffdb144>
   423b4:	04c00174 	movhi	r19,5
   423b8:	9cf0c404 	addi	r19,r19,-15600
   423bc:	003cf406 	br	41790 <__alt_data_end+0xfffda690>
   423c0:	d9412917 	ldw	r5,1188(sp)
   423c4:	8809883a 	mov	r4,r17
   423c8:	d9811b04 	addi	r6,sp,1132
   423cc:	0040e300 	call	40e30 <__sprint_r>
   423d0:	103c371e 	bne	r2,zero,414b0 <__alt_data_end+0xfffda3b0>
   423d4:	da011d17 	ldw	r8,1140(sp)
   423d8:	da400404 	addi	r9,sp,16
   423dc:	003e1c06 	br	41c50 <__alt_data_end+0xfffdab50>
   423e0:	00800174 	movhi	r2,5
   423e4:	10b0d304 	addi	r2,r2,-15540
   423e8:	48800015 	stw	r2,0(r9)
   423ec:	00800044 	movi	r2,1
   423f0:	48800115 	stw	r2,4(r9)
   423f4:	4091883a 	add	r8,r8,r2
   423f8:	1887883a 	add	r3,r3,r2
   423fc:	da011d15 	stw	r8,1140(sp)
   42400:	d8c11c15 	stw	r3,1136(sp)
   42404:	008001c4 	movi	r2,7
   42408:	10c0c316 	blt	r2,r3,42718 <___vfprintf_internal_r+0x18b4>
   4240c:	4a400204 	addi	r9,r9,8
   42410:	9000041e 	bne	r18,zero,42424 <___vfprintf_internal_r+0x15c0>
   42414:	d8c13217 	ldw	r3,1224(sp)
   42418:	1800021e 	bne	r3,zero,42424 <___vfprintf_internal_r+0x15c0>
   4241c:	8080004c 	andi	r2,r16,1
   42420:	103d7826 	beq	r2,zero,41a04 <__alt_data_end+0xfffda904>
   42424:	d8c11c17 	ldw	r3,1136(sp)
   42428:	d9013717 	ldw	r4,1244(sp)
   4242c:	00800044 	movi	r2,1
   42430:	48800115 	stw	r2,4(r9)
   42434:	49000015 	stw	r4,0(r9)
   42438:	4091883a 	add	r8,r8,r2
   4243c:	1887883a 	add	r3,r3,r2
   42440:	da011d15 	stw	r8,1140(sp)
   42444:	d8c11c15 	stw	r3,1136(sp)
   42448:	008001c4 	movi	r2,7
   4244c:	10c12e16 	blt	r2,r3,42908 <___vfprintf_internal_r+0x1aa4>
   42450:	4a400204 	addi	r9,r9,8
   42454:	04a5c83a 	sub	r18,zero,r18
   42458:	0480de0e 	bge	zero,r18,427d4 <___vfprintf_internal_r+0x1970>
   4245c:	05800404 	movi	r22,16
   42460:	05000174 	movhi	r20,5
   42464:	a530d784 	addi	r20,r20,-15522
   42468:	b480e20e 	bge	r22,r18,427f4 <___vfprintf_internal_r+0x1990>
   4246c:	05c001c4 	movi	r23,7
   42470:	df012917 	ldw	fp,1188(sp)
   42474:	00000306 	br	42484 <___vfprintf_internal_r+0x1620>
   42478:	4a400204 	addi	r9,r9,8
   4247c:	94bffc04 	addi	r18,r18,-16
   42480:	b480dc0e 	bge	r22,r18,427f4 <___vfprintf_internal_r+0x1990>
   42484:	4d000015 	stw	r20,0(r9)
   42488:	4d800115 	stw	r22,4(r9)
   4248c:	42000404 	addi	r8,r8,16
   42490:	18c00044 	addi	r3,r3,1
   42494:	da011d15 	stw	r8,1140(sp)
   42498:	d8c11c15 	stw	r3,1136(sp)
   4249c:	b8fff60e 	bge	r23,r3,42478 <__alt_data_end+0xfffdb378>
   424a0:	8809883a 	mov	r4,r17
   424a4:	e00b883a 	mov	r5,fp
   424a8:	d9811b04 	addi	r6,sp,1132
   424ac:	0040e300 	call	40e30 <__sprint_r>
   424b0:	103bff1e 	bne	r2,zero,414b0 <__alt_data_end+0xfffda3b0>
   424b4:	da011d17 	ldw	r8,1140(sp)
   424b8:	d8c11c17 	ldw	r3,1136(sp)
   424bc:	da400404 	addi	r9,sp,16
   424c0:	003fee06 	br	4247c <__alt_data_end+0xfffdb37c>
   424c4:	da413c15 	stw	r9,1264(sp)
   424c8:	00479300 	call	47930 <__isnand>
   424cc:	da413c17 	ldw	r9,1264(sp)
   424d0:	1000851e 	bne	r2,zero,426e8 <___vfprintf_internal_r+0x1884>
   424d4:	00bfffc4 	movi	r2,-1
   424d8:	e0817626 	beq	fp,r2,42ab4 <___vfprintf_internal_r+0x1c50>
   424dc:	008019c4 	movi	r2,103
   424e0:	90817126 	beq	r18,r2,42aa8 <___vfprintf_internal_r+0x1c44>
   424e4:	008011c4 	movi	r2,71
   424e8:	90816f26 	beq	r18,r2,42aa8 <___vfprintf_internal_r+0x1c44>
   424ec:	82004014 	ori	r8,r16,256
   424f0:	da012a15 	stw	r8,1192(sp)
   424f4:	a0017116 	blt	r20,zero,42abc <___vfprintf_internal_r+0x1c58>
   424f8:	d8012f05 	stb	zero,1212(sp)
   424fc:	00801984 	movi	r2,102
   42500:	90811226 	beq	r18,r2,4294c <___vfprintf_internal_r+0x1ae8>
   42504:	00801184 	movi	r2,70
   42508:	90811026 	beq	r18,r2,4294c <___vfprintf_internal_r+0x1ae8>
   4250c:	00801944 	movi	r2,101
   42510:	90819b26 	beq	r18,r2,42b80 <___vfprintf_internal_r+0x1d1c>
   42514:	00801144 	movi	r2,69
   42518:	90819926 	beq	r18,r2,42b80 <___vfprintf_internal_r+0x1d1c>
   4251c:	e02f883a 	mov	r23,fp
   42520:	d8812404 	addi	r2,sp,1168
   42524:	d8800115 	stw	r2,4(sp)
   42528:	d8812304 	addi	r2,sp,1164
   4252c:	d8800215 	stw	r2,8(sp)
   42530:	d8812204 	addi	r2,sp,1160
   42534:	ddc00015 	stw	r23,0(sp)
   42538:	d8800315 	stw	r2,12(sp)
   4253c:	8809883a 	mov	r4,r17
   42540:	b00b883a 	mov	r5,r22
   42544:	a00d883a 	mov	r6,r20
   42548:	01c00084 	movi	r7,2
   4254c:	da413c15 	stw	r9,1264(sp)
   42550:	0042ffc0 	call	42ffc <_dtoa_r>
   42554:	1027883a 	mov	r19,r2
   42558:	008019c4 	movi	r2,103
   4255c:	da413c17 	ldw	r9,1264(sp)
   42560:	90818c1e 	bne	r18,r2,42b94 <___vfprintf_internal_r+0x1d30>
   42564:	8080004c 	andi	r2,r16,1
   42568:	10017926 	beq	r2,zero,42b50 <___vfprintf_internal_r+0x1cec>
   4256c:	00801184 	movi	r2,70
   42570:	9dc7883a 	add	r3,r19,r23
   42574:	90810626 	beq	r18,r2,42990 <___vfprintf_internal_r+0x1b2c>
   42578:	b009883a 	mov	r4,r22
   4257c:	a00b883a 	mov	r5,r20
   42580:	000d883a 	mov	r6,zero
   42584:	000f883a 	mov	r7,zero
   42588:	d8c13b15 	stw	r3,1260(sp)
   4258c:	da413c15 	stw	r9,1264(sp)
   42590:	00492640 	call	49264 <__eqdf2>
   42594:	d8c13b17 	ldw	r3,1260(sp)
   42598:	da413c17 	ldw	r9,1264(sp)
   4259c:	10000726 	beq	r2,zero,425bc <___vfprintf_internal_r+0x1758>
   425a0:	d8812217 	ldw	r2,1160(sp)
   425a4:	10c1962e 	bgeu	r2,r3,42c00 <___vfprintf_internal_r+0x1d9c>
   425a8:	01000c04 	movi	r4,48
   425ac:	11000005 	stb	r4,0(r2)
   425b0:	10800044 	addi	r2,r2,1
   425b4:	d8812215 	stw	r2,1160(sp)
   425b8:	10fffc1e 	bne	r2,r3,425ac <__alt_data_end+0xfffdb4ac>
   425bc:	1cc7c83a 	sub	r3,r3,r19
   425c0:	d8c13215 	stw	r3,1224(sp)
   425c4:	008019c4 	movi	r2,103
   425c8:	90810626 	beq	r18,r2,429e4 <___vfprintf_internal_r+0x1b80>
   425cc:	008011c4 	movi	r2,71
   425d0:	90810426 	beq	r18,r2,429e4 <___vfprintf_internal_r+0x1b80>
   425d4:	00801984 	movi	r2,102
   425d8:	90819a1e 	bne	r18,r2,42c44 <___vfprintf_internal_r+0x1de0>
   425dc:	d8812417 	ldw	r2,1168(sp)
   425e0:	d8812b15 	stw	r2,1196(sp)
   425e4:	0081880e 	bge	zero,r2,42c08 <___vfprintf_internal_r+0x1da4>
   425e8:	e000021e 	bne	fp,zero,425f4 <___vfprintf_internal_r+0x1790>
   425ec:	8400004c 	andi	r16,r16,1
   425f0:	80000426 	beq	r16,zero,42604 <___vfprintf_internal_r+0x17a0>
   425f4:	d8812b17 	ldw	r2,1196(sp)
   425f8:	e2000044 	addi	r8,fp,1
   425fc:	1205883a 	add	r2,r2,r8
   42600:	d8812b15 	stw	r2,1196(sp)
   42604:	d8812815 	stw	r2,1184(sp)
   42608:	10011716 	blt	r2,zero,42a68 <___vfprintf_internal_r+0x1c04>
   4260c:	ddc12f07 	ldb	r23,1212(sp)
   42610:	b800ca26 	beq	r23,zero,4293c <___vfprintf_internal_r+0x1ad8>
   42614:	00800b44 	movi	r2,45
   42618:	d8812585 	stb	r2,1174(sp)
   4261c:	dc012a17 	ldw	r16,1192(sp)
   42620:	d8013115 	stw	zero,1220(sp)
   42624:	003afe06 	br	41220 <__alt_data_end+0xfffda120>
   42628:	d8812b17 	ldw	r2,1196(sp)
   4262c:	d8812815 	stw	r2,1184(sp)
   42630:	10005e16 	blt	r2,zero,427ac <___vfprintf_internal_r+0x1948>
   42634:	d8812583 	ldbu	r2,1174(sp)
   42638:	ddc12d15 	stw	r23,1204(sp)
   4263c:	d8013115 	stw	zero,1220(sp)
   42640:	003af306 	br	41210 <__alt_data_end+0xfffda110>
   42644:	d8812d17 	ldw	r2,1204(sp)
   42648:	15c00017 	ldw	r23,0(r2)
   4264c:	10800104 	addi	r2,r2,4
   42650:	d8812d15 	stw	r2,1204(sp)
   42654:	b82dd7fa 	srai	r22,r23,31
   42658:	b005883a 	mov	r2,r22
   4265c:	003b4906 	br	41384 <__alt_data_end+0xfffda284>
   42660:	d8c12d17 	ldw	r3,1204(sp)
   42664:	002d883a 	mov	r22,zero
   42668:	1dc00017 	ldw	r23,0(r3)
   4266c:	18c00104 	addi	r3,r3,4
   42670:	d8c12d15 	stw	r3,1204(sp)
   42674:	b805883a 	mov	r2,r23
   42678:	00c00044 	movi	r3,1
   4267c:	d8012585 	stb	zero,1174(sp)
   42680:	003acf06 	br	411c0 <__alt_data_end+0xfffda0c0>
   42684:	da012d17 	ldw	r8,1204(sp)
   42688:	002d883a 	mov	r22,zero
   4268c:	45c00017 	ldw	r23,0(r8)
   42690:	42000104 	addi	r8,r8,4
   42694:	da012d15 	stw	r8,1204(sp)
   42698:	003be506 	br	41630 <__alt_data_end+0xfffda530>
   4269c:	da012d17 	ldw	r8,1204(sp)
   426a0:	002d883a 	mov	r22,zero
   426a4:	0007883a 	mov	r3,zero
   426a8:	45c00017 	ldw	r23,0(r8)
   426ac:	42000104 	addi	r8,r8,4
   426b0:	da012d15 	stw	r8,1204(sp)
   426b4:	b805883a 	mov	r2,r23
   426b8:	d8012585 	stb	zero,1174(sp)
   426bc:	003ac006 	br	411c0 <__alt_data_end+0xfffda0c0>
   426c0:	d8c12d17 	ldw	r3,1204(sp)
   426c4:	d9012c17 	ldw	r4,1200(sp)
   426c8:	18800017 	ldw	r2,0(r3)
   426cc:	18c00104 	addi	r3,r3,4
   426d0:	d8c12d15 	stw	r3,1204(sp)
   426d4:	11000015 	stw	r4,0(r2)
   426d8:	003a1806 	br	40f3c <__alt_data_end+0xfffd9e3c>
   426dc:	073fffc4 	movi	fp,-1
   426e0:	202b883a 	mov	r21,r4
   426e4:	003a3e06 	br	40fe0 <__alt_data_end+0xfffd9ee0>
   426e8:	008011c4 	movi	r2,71
   426ec:	14809016 	blt	r2,r18,42930 <___vfprintf_internal_r+0x1acc>
   426f0:	04c00174 	movhi	r19,5
   426f4:	9cf0c504 	addi	r19,r19,-15596
   426f8:	00c000c4 	movi	r3,3
   426fc:	00bfdfc4 	movi	r2,-129
   42700:	80a0703a 	and	r16,r16,r2
   42704:	d8c12815 	stw	r3,1184(sp)
   42708:	d8812583 	ldbu	r2,1174(sp)
   4270c:	d8c12b15 	stw	r3,1196(sp)
   42710:	d8013115 	stw	zero,1220(sp)
   42714:	003abe06 	br	41210 <__alt_data_end+0xfffda110>
   42718:	d9412917 	ldw	r5,1188(sp)
   4271c:	8809883a 	mov	r4,r17
   42720:	d9811b04 	addi	r6,sp,1132
   42724:	0040e300 	call	40e30 <__sprint_r>
   42728:	103b611e 	bne	r2,zero,414b0 <__alt_data_end+0xfffda3b0>
   4272c:	dc812417 	ldw	r18,1168(sp)
   42730:	da011d17 	ldw	r8,1140(sp)
   42734:	da400404 	addi	r9,sp,16
   42738:	003f3506 	br	42410 <__alt_data_end+0xfffdb310>
   4273c:	ad400044 	addi	r21,r21,1
   42740:	84000814 	ori	r16,r16,32
   42744:	14800047 	ldb	r18,1(r2)
   42748:	003a2406 	br	40fdc <__alt_data_end+0xfffd9edc>
   4274c:	d9412917 	ldw	r5,1188(sp)
   42750:	8809883a 	mov	r4,r17
   42754:	d9811b04 	addi	r6,sp,1132
   42758:	0040e300 	call	40e30 <__sprint_r>
   4275c:	103b541e 	bne	r2,zero,414b0 <__alt_data_end+0xfffda3b0>
   42760:	da011d17 	ldw	r8,1140(sp)
   42764:	da400404 	addi	r9,sp,16
   42768:	003d4a06 	br	41c94 <__alt_data_end+0xfffdab94>
   4276c:	4d000015 	stw	r20,0(r9)
   42770:	4c800115 	stw	r18,4(r9)
   42774:	4491883a 	add	r8,r8,r18
   42778:	18c00044 	addi	r3,r3,1
   4277c:	da011d15 	stw	r8,1140(sp)
   42780:	d8c11c15 	stw	r3,1136(sp)
   42784:	008001c4 	movi	r2,7
   42788:	10fcdc16 	blt	r2,r3,41afc <__alt_data_end+0xfffda9fc>
   4278c:	4a400204 	addi	r9,r9,8
   42790:	003ce106 	br	41b18 <__alt_data_end+0xfffdaa18>
   42794:	da413c15 	stw	r9,1264(sp)
   42798:	0040da40 	call	40da4 <strlen>
   4279c:	d8812b15 	stw	r2,1196(sp)
   427a0:	d8812815 	stw	r2,1184(sp)
   427a4:	da413c17 	ldw	r9,1264(sp)
   427a8:	103fa20e 	bge	r2,zero,42634 <__alt_data_end+0xfffdb534>
   427ac:	d8012815 	stw	zero,1184(sp)
   427b0:	003fa006 	br	42634 <__alt_data_end+0xfffdb534>
   427b4:	d9412917 	ldw	r5,1188(sp)
   427b8:	8809883a 	mov	r4,r17
   427bc:	d9811b04 	addi	r6,sp,1132
   427c0:	0040e300 	call	40e30 <__sprint_r>
   427c4:	103b3a1e 	bne	r2,zero,414b0 <__alt_data_end+0xfffda3b0>
   427c8:	da011d17 	ldw	r8,1140(sp)
   427cc:	d8c11c17 	ldw	r3,1136(sp)
   427d0:	da400404 	addi	r9,sp,16
   427d4:	d8813217 	ldw	r2,1224(sp)
   427d8:	4cc00015 	stw	r19,0(r9)
   427dc:	48800115 	stw	r2,4(r9)
   427e0:	4091883a 	add	r8,r8,r2
   427e4:	003c8106 	br	419ec <__alt_data_end+0xfffda8ec>
   427e8:	00800b44 	movi	r2,45
   427ec:	d8812585 	stb	r2,1174(sp)
   427f0:	003be306 	br	41780 <__alt_data_end+0xfffda680>
   427f4:	4d000015 	stw	r20,0(r9)
   427f8:	4c800115 	stw	r18,4(r9)
   427fc:	4491883a 	add	r8,r8,r18
   42800:	18c00044 	addi	r3,r3,1
   42804:	da011d15 	stw	r8,1140(sp)
   42808:	d8c11c15 	stw	r3,1136(sp)
   4280c:	008001c4 	movi	r2,7
   42810:	10ffe816 	blt	r2,r3,427b4 <__alt_data_end+0xfffdb6b4>
   42814:	4a400204 	addi	r9,r9,8
   42818:	003fee06 	br	427d4 <__alt_data_end+0xfffdb6d4>
   4281c:	df012b15 	stw	fp,1196(sp)
   42820:	00800184 	movi	r2,6
   42824:	1700072e 	bgeu	r2,fp,42844 <___vfprintf_internal_r+0x19e0>
   42828:	d8812b15 	stw	r2,1196(sp)
   4282c:	d8812815 	stw	r2,1184(sp)
   42830:	ddc12d15 	stw	r23,1204(sp)
   42834:	04c00174 	movhi	r19,5
   42838:	9cf0d104 	addi	r19,r19,-15548
   4283c:	d8013115 	stw	zero,1220(sp)
   42840:	003a7a06 	br	4122c <__alt_data_end+0xfffda12c>
   42844:	d8812b17 	ldw	r2,1196(sp)
   42848:	d8812815 	stw	r2,1184(sp)
   4284c:	103ff80e 	bge	r2,zero,42830 <__alt_data_end+0xfffdb730>
   42850:	d8012815 	stw	zero,1184(sp)
   42854:	003ff606 	br	42830 <__alt_data_end+0xfffdb730>
   42858:	d9012d17 	ldw	r4,1204(sp)
   4285c:	da012c17 	ldw	r8,1200(sp)
   42860:	20800017 	ldw	r2,0(r4)
   42864:	21000104 	addi	r4,r4,4
   42868:	d9012d15 	stw	r4,1204(sp)
   4286c:	12000015 	stw	r8,0(r2)
   42870:	0039b206 	br	40f3c <__alt_data_end+0xfffd9e3c>
   42874:	d9412917 	ldw	r5,1188(sp)
   42878:	8809883a 	mov	r4,r17
   4287c:	d9811b04 	addi	r6,sp,1132
   42880:	0040e300 	call	40e30 <__sprint_r>
   42884:	103b0a1e 	bne	r2,zero,414b0 <__alt_data_end+0xfffda3b0>
   42888:	dc812417 	ldw	r18,1168(sp)
   4288c:	da011d17 	ldw	r8,1140(sp)
   42890:	da400404 	addi	r9,sp,16
   42894:	003def06 	br	42054 <__alt_data_end+0xfffdaf54>
   42898:	d9412917 	ldw	r5,1188(sp)
   4289c:	8809883a 	mov	r4,r17
   428a0:	d9811b04 	addi	r6,sp,1132
   428a4:	0040e300 	call	40e30 <__sprint_r>
   428a8:	103b011e 	bne	r2,zero,414b0 <__alt_data_end+0xfffda3b0>
   428ac:	dc812417 	ldw	r18,1168(sp)
   428b0:	da400404 	addi	r9,sp,16
   428b4:	003eb906 	br	4239c <__alt_data_end+0xfffdb29c>
   428b8:	d9412917 	ldw	r5,1188(sp)
   428bc:	8809883a 	mov	r4,r17
   428c0:	d9811b04 	addi	r6,sp,1132
   428c4:	0040e300 	call	40e30 <__sprint_r>
   428c8:	103af91e 	bne	r2,zero,414b0 <__alt_data_end+0xfffda3b0>
   428cc:	dc812417 	ldw	r18,1168(sp)
   428d0:	da011d17 	ldw	r8,1140(sp)
   428d4:	d8c11c17 	ldw	r3,1136(sp)
   428d8:	da400404 	addi	r9,sp,16
   428dc:	003ea306 	br	4236c <__alt_data_end+0xfffdb26c>
   428e0:	00800244 	movi	r2,9
   428e4:	15fda636 	bltu	r2,r23,41f80 <__alt_data_end+0xfffdae80>
   428e8:	dd010e04 	addi	r20,sp,1080
   428ec:	003dc206 	br	41ff8 <__alt_data_end+0xfffdaef8>
   428f0:	df012815 	stw	fp,1184(sp)
   428f4:	d8812583 	ldbu	r2,1174(sp)
   428f8:	df012b15 	stw	fp,1196(sp)
   428fc:	ddc12d15 	stw	r23,1204(sp)
   42900:	d8013115 	stw	zero,1220(sp)
   42904:	003a4206 	br	41210 <__alt_data_end+0xfffda110>
   42908:	d9412917 	ldw	r5,1188(sp)
   4290c:	8809883a 	mov	r4,r17
   42910:	d9811b04 	addi	r6,sp,1132
   42914:	0040e300 	call	40e30 <__sprint_r>
   42918:	103ae51e 	bne	r2,zero,414b0 <__alt_data_end+0xfffda3b0>
   4291c:	dc812417 	ldw	r18,1168(sp)
   42920:	da011d17 	ldw	r8,1140(sp)
   42924:	d8c11c17 	ldw	r3,1136(sp)
   42928:	da400404 	addi	r9,sp,16
   4292c:	003ec906 	br	42454 <__alt_data_end+0xfffdb354>
   42930:	04c00174 	movhi	r19,5
   42934:	9cf0c604 	addi	r19,r19,-15592
   42938:	003f6f06 	br	426f8 <__alt_data_end+0xfffdb5f8>
   4293c:	d8812583 	ldbu	r2,1174(sp)
   42940:	dc012a17 	ldw	r16,1192(sp)
   42944:	d8013115 	stw	zero,1220(sp)
   42948:	003a3106 	br	41210 <__alt_data_end+0xfffda110>
   4294c:	d8812404 	addi	r2,sp,1168
   42950:	d8800115 	stw	r2,4(sp)
   42954:	d8812304 	addi	r2,sp,1164
   42958:	d8800215 	stw	r2,8(sp)
   4295c:	d8812204 	addi	r2,sp,1160
   42960:	df000015 	stw	fp,0(sp)
   42964:	d8800315 	stw	r2,12(sp)
   42968:	8809883a 	mov	r4,r17
   4296c:	b00b883a 	mov	r5,r22
   42970:	a00d883a 	mov	r6,r20
   42974:	01c000c4 	movi	r7,3
   42978:	da413c15 	stw	r9,1264(sp)
   4297c:	0042ffc0 	call	42ffc <_dtoa_r>
   42980:	da413c17 	ldw	r9,1264(sp)
   42984:	1027883a 	mov	r19,r2
   42988:	1707883a 	add	r3,r2,fp
   4298c:	e02f883a 	mov	r23,fp
   42990:	99000007 	ldb	r4,0(r19)
   42994:	00800c04 	movi	r2,48
   42998:	20800326 	beq	r4,r2,429a8 <___vfprintf_internal_r+0x1b44>
   4299c:	da812417 	ldw	r10,1168(sp)
   429a0:	1a87883a 	add	r3,r3,r10
   429a4:	003ef406 	br	42578 <__alt_data_end+0xfffdb478>
   429a8:	b009883a 	mov	r4,r22
   429ac:	a00b883a 	mov	r5,r20
   429b0:	000d883a 	mov	r6,zero
   429b4:	000f883a 	mov	r7,zero
   429b8:	d8c13b15 	stw	r3,1260(sp)
   429bc:	da413c15 	stw	r9,1264(sp)
   429c0:	00492c00 	call	492c0 <__nedf2>
   429c4:	d8c13b17 	ldw	r3,1260(sp)
   429c8:	da413c17 	ldw	r9,1264(sp)
   429cc:	103ff326 	beq	r2,zero,4299c <__alt_data_end+0xfffdb89c>
   429d0:	00800044 	movi	r2,1
   429d4:	15d5c83a 	sub	r10,r2,r23
   429d8:	da812415 	stw	r10,1168(sp)
   429dc:	1a87883a 	add	r3,r3,r10
   429e0:	003ee506 	br	42578 <__alt_data_end+0xfffdb478>
   429e4:	d8812417 	ldw	r2,1168(sp)
   429e8:	d8812b15 	stw	r2,1196(sp)
   429ec:	1029883a 	mov	r20,r2
   429f0:	00bfff44 	movi	r2,-3
   429f4:	a0800116 	blt	r20,r2,429fc <___vfprintf_internal_r+0x1b98>
   429f8:	e5001d0e 	bge	fp,r20,42a70 <___vfprintf_internal_r+0x1c0c>
   429fc:	94bfff84 	addi	r18,r18,-2
   42a00:	a53fffc4 	addi	r20,r20,-1
   42a04:	dd012415 	stw	r20,1168(sp)
   42a08:	dc811fc5 	stb	r18,1151(sp)
   42a0c:	a0007816 	blt	r20,zero,42bf0 <___vfprintf_internal_r+0x1d8c>
   42a10:	00800ac4 	movi	r2,43
   42a14:	d8812005 	stb	r2,1152(sp)
   42a18:	00800244 	movi	r2,9
   42a1c:	15002b16 	blt	r2,r20,42acc <___vfprintf_internal_r+0x1c68>
   42a20:	00800c04 	movi	r2,48
   42a24:	a5000c04 	addi	r20,r20,48
   42a28:	d8812045 	stb	r2,1153(sp)
   42a2c:	dd012085 	stb	r20,1154(sp)
   42a30:	d8c120c4 	addi	r3,sp,1155
   42a34:	d8811fc4 	addi	r2,sp,1151
   42a38:	da013217 	ldw	r8,1224(sp)
   42a3c:	1885c83a 	sub	r2,r3,r2
   42a40:	d8813515 	stw	r2,1236(sp)
   42a44:	4085883a 	add	r2,r8,r2
   42a48:	d8812b15 	stw	r2,1196(sp)
   42a4c:	00800044 	movi	r2,1
   42a50:	1200610e 	bge	r2,r8,42bd8 <___vfprintf_internal_r+0x1d74>
   42a54:	d8812b17 	ldw	r2,1196(sp)
   42a58:	10800044 	addi	r2,r2,1
   42a5c:	d8812b15 	stw	r2,1196(sp)
   42a60:	d8812815 	stw	r2,1184(sp)
   42a64:	103ee90e 	bge	r2,zero,4260c <__alt_data_end+0xfffdb50c>
   42a68:	d8012815 	stw	zero,1184(sp)
   42a6c:	003ee706 	br	4260c <__alt_data_end+0xfffdb50c>
   42a70:	d8812b17 	ldw	r2,1196(sp)
   42a74:	da013217 	ldw	r8,1224(sp)
   42a78:	12003716 	blt	r2,r8,42b58 <___vfprintf_internal_r+0x1cf4>
   42a7c:	8400004c 	andi	r16,r16,1
   42a80:	80000326 	beq	r16,zero,42a90 <___vfprintf_internal_r+0x1c2c>
   42a84:	d8812b17 	ldw	r2,1196(sp)
   42a88:	10800044 	addi	r2,r2,1
   42a8c:	d8812b15 	stw	r2,1196(sp)
   42a90:	d8812815 	stw	r2,1184(sp)
   42a94:	10003716 	blt	r2,zero,42b74 <___vfprintf_internal_r+0x1d10>
   42a98:	048019c4 	movi	r18,103
   42a9c:	003edb06 	br	4260c <__alt_data_end+0xfffdb50c>
   42aa0:	d8012815 	stw	zero,1184(sp)
   42aa4:	003b6906 	br	4184c <__alt_data_end+0xfffda74c>
   42aa8:	e03e901e 	bne	fp,zero,424ec <__alt_data_end+0xfffdb3ec>
   42aac:	07000044 	movi	fp,1
   42ab0:	003e8e06 	br	424ec <__alt_data_end+0xfffdb3ec>
   42ab4:	07000184 	movi	fp,6
   42ab8:	003e8c06 	br	424ec <__alt_data_end+0xfffdb3ec>
   42abc:	00c00b44 	movi	r3,45
   42ac0:	a520003c 	xorhi	r20,r20,32768
   42ac4:	d8c12f05 	stb	r3,1212(sp)
   42ac8:	003e8c06 	br	424fc <__alt_data_end+0xfffdb3fc>
   42acc:	d8c11f84 	addi	r3,sp,1150
   42ad0:	102f883a 	mov	r23,r2
   42ad4:	4839883a 	mov	fp,r9
   42ad8:	a009883a 	mov	r4,r20
   42adc:	01400284 	movi	r5,10
   42ae0:	182d883a 	mov	r22,r3
   42ae4:	00497b80 	call	497b8 <__modsi3>
   42ae8:	10800c04 	addi	r2,r2,48
   42aec:	a009883a 	mov	r4,r20
   42af0:	b0800005 	stb	r2,0(r22)
   42af4:	01400284 	movi	r5,10
   42af8:	00497680 	call	49768 <__divsi3>
   42afc:	1029883a 	mov	r20,r2
   42b00:	b0ffffc4 	addi	r3,r22,-1
   42b04:	b8bff416 	blt	r23,r2,42ad8 <__alt_data_end+0xfffdb9d8>
   42b08:	11400c04 	addi	r5,r2,48
   42b0c:	b17fffc5 	stb	r5,-1(r22)
   42b10:	d8811fc4 	addi	r2,sp,1151
   42b14:	e013883a 	mov	r9,fp
   42b18:	1880482e 	bgeu	r3,r2,42c3c <___vfprintf_internal_r+0x1dd8>
   42b1c:	b007883a 	mov	r3,r22
   42b20:	d9012044 	addi	r4,sp,1153
   42b24:	00000206 	br	42b30 <___vfprintf_internal_r+0x1ccc>
   42b28:	19400003 	ldbu	r5,0(r3)
   42b2c:	18c00044 	addi	r3,r3,1
   42b30:	21400005 	stb	r5,0(r4)
   42b34:	21000044 	addi	r4,r4,1
   42b38:	10fffb1e 	bne	r2,r3,42b28 <__alt_data_end+0xfffdba28>
   42b3c:	d8c12004 	addi	r3,sp,1152
   42b40:	1d87c83a 	sub	r3,r3,r22
   42b44:	d9012044 	addi	r4,sp,1153
   42b48:	20c7883a 	add	r3,r4,r3
   42b4c:	003fba06 	br	42a38 <__alt_data_end+0xfffdb938>
   42b50:	d8c12217 	ldw	r3,1160(sp)
   42b54:	003e9906 	br	425bc <__alt_data_end+0xfffdb4bc>
   42b58:	05000b0e 	bge	zero,r20,42b88 <___vfprintf_internal_r+0x1d24>
   42b5c:	05000044 	movi	r20,1
   42b60:	da013217 	ldw	r8,1224(sp)
   42b64:	a229883a 	add	r20,r20,r8
   42b68:	dd012b15 	stw	r20,1196(sp)
   42b6c:	dd012815 	stw	r20,1184(sp)
   42b70:	a03fc90e 	bge	r20,zero,42a98 <__alt_data_end+0xfffdb998>
   42b74:	d8012815 	stw	zero,1184(sp)
   42b78:	048019c4 	movi	r18,103
   42b7c:	003ea306 	br	4260c <__alt_data_end+0xfffdb50c>
   42b80:	e5c00044 	addi	r23,fp,1
   42b84:	003e6606 	br	42520 <__alt_data_end+0xfffdb420>
   42b88:	00800084 	movi	r2,2
   42b8c:	1529c83a 	sub	r20,r2,r20
   42b90:	003ff306 	br	42b60 <__alt_data_end+0xfffdba60>
   42b94:	008011c4 	movi	r2,71
   42b98:	90be7226 	beq	r18,r2,42564 <__alt_data_end+0xfffdb464>
   42b9c:	003e7306 	br	4256c <__alt_data_end+0xfffdb46c>
   42ba0:	d8812d17 	ldw	r2,1204(sp)
   42ba4:	ac800043 	ldbu	r18,1(r21)
   42ba8:	202b883a 	mov	r21,r4
   42bac:	17000017 	ldw	fp,0(r2)
   42bb0:	10800104 	addi	r2,r2,4
   42bb4:	d8812d15 	stw	r2,1204(sp)
   42bb8:	e0001b16 	blt	fp,zero,42c28 <___vfprintf_internal_r+0x1dc4>
   42bbc:	94803fcc 	andi	r18,r18,255
   42bc0:	9480201c 	xori	r18,r18,128
   42bc4:	94bfe004 	addi	r18,r18,-128
   42bc8:	00390406 	br	40fdc <__alt_data_end+0xfffd9edc>
   42bcc:	00bfffc4 	movi	r2,-1
   42bd0:	d8812c15 	stw	r2,1200(sp)
   42bd4:	003a2506 	br	4146c <__alt_data_end+0xfffda36c>
   42bd8:	80a0703a 	and	r16,r16,r2
   42bdc:	803f9d1e 	bne	r16,zero,42a54 <__alt_data_end+0xfffdb954>
   42be0:	d8812b17 	ldw	r2,1196(sp)
   42be4:	d8812815 	stw	r2,1184(sp)
   42be8:	103e880e 	bge	r2,zero,4260c <__alt_data_end+0xfffdb50c>
   42bec:	003f9e06 	br	42a68 <__alt_data_end+0xfffdb968>
   42bf0:	00800b44 	movi	r2,45
   42bf4:	0529c83a 	sub	r20,zero,r20
   42bf8:	d8812005 	stb	r2,1152(sp)
   42bfc:	003f8606 	br	42a18 <__alt_data_end+0xfffdb918>
   42c00:	1007883a 	mov	r3,r2
   42c04:	003e6d06 	br	425bc <__alt_data_end+0xfffdb4bc>
   42c08:	e000021e 	bne	fp,zero,42c14 <___vfprintf_internal_r+0x1db0>
   42c0c:	8400004c 	andi	r16,r16,1
   42c10:	80000e26 	beq	r16,zero,42c4c <___vfprintf_internal_r+0x1de8>
   42c14:	e7000084 	addi	fp,fp,2
   42c18:	df012b15 	stw	fp,1196(sp)
   42c1c:	df012815 	stw	fp,1184(sp)
   42c20:	e03e7a0e 	bge	fp,zero,4260c <__alt_data_end+0xfffdb50c>
   42c24:	003f9006 	br	42a68 <__alt_data_end+0xfffdb968>
   42c28:	94803fcc 	andi	r18,r18,255
   42c2c:	9480201c 	xori	r18,r18,128
   42c30:	073fffc4 	movi	fp,-1
   42c34:	94bfe004 	addi	r18,r18,-128
   42c38:	0038e806 	br	40fdc <__alt_data_end+0xfffd9edc>
   42c3c:	d8c12044 	addi	r3,sp,1153
   42c40:	003f7d06 	br	42a38 <__alt_data_end+0xfffdb938>
   42c44:	dd012417 	ldw	r20,1168(sp)
   42c48:	003f6d06 	br	42a00 <__alt_data_end+0xfffdb900>
   42c4c:	00c00044 	movi	r3,1
   42c50:	d8c12815 	stw	r3,1184(sp)
   42c54:	d8c12b15 	stw	r3,1196(sp)
   42c58:	003e6c06 	br	4260c <__alt_data_end+0xfffdb50c>

00042c5c <__vfprintf_internal>:
   42c5c:	00800174 	movhi	r2,5
   42c60:	10b7cd04 	addi	r2,r2,-8396
   42c64:	2007883a 	mov	r3,r4
   42c68:	11000017 	ldw	r4,0(r2)
   42c6c:	2805883a 	mov	r2,r5
   42c70:	300f883a 	mov	r7,r6
   42c74:	180b883a 	mov	r5,r3
   42c78:	100d883a 	mov	r6,r2
   42c7c:	0040e641 	jmpi	40e64 <___vfprintf_internal_r>

00042c80 <__swsetup_r>:
   42c80:	00800174 	movhi	r2,5
   42c84:	10b7cd04 	addi	r2,r2,-8396
   42c88:	10800017 	ldw	r2,0(r2)
   42c8c:	defffd04 	addi	sp,sp,-12
   42c90:	dc400115 	stw	r17,4(sp)
   42c94:	dc000015 	stw	r16,0(sp)
   42c98:	dfc00215 	stw	ra,8(sp)
   42c9c:	2023883a 	mov	r17,r4
   42ca0:	2821883a 	mov	r16,r5
   42ca4:	10000226 	beq	r2,zero,42cb0 <__swsetup_r+0x30>
   42ca8:	10c00e17 	ldw	r3,56(r2)
   42cac:	18003d26 	beq	r3,zero,42da4 <__swsetup_r+0x124>
   42cb0:	8080030b 	ldhu	r2,12(r16)
   42cb4:	10c0020c 	andi	r3,r2,8
   42cb8:	18ffffcc 	andi	r3,r3,65535
   42cbc:	18e0001c 	xori	r3,r3,32768
   42cc0:	18e00004 	addi	r3,r3,-32768
   42cc4:	18001226 	beq	r3,zero,42d10 <__swsetup_r+0x90>
   42cc8:	80c00417 	ldw	r3,16(r16)
   42ccc:	18001f26 	beq	r3,zero,42d4c <__swsetup_r+0xcc>
   42cd0:	1100004c 	andi	r4,r2,1
   42cd4:	2000261e 	bne	r4,zero,42d70 <__swsetup_r+0xf0>
   42cd8:	1080008c 	andi	r2,r2,2
   42cdc:	10bfffcc 	andi	r2,r2,65535
   42ce0:	10a0001c 	xori	r2,r2,32768
   42ce4:	10a00004 	addi	r2,r2,-32768
   42ce8:	1000311e 	bne	r2,zero,42db0 <__swsetup_r+0x130>
   42cec:	80800517 	ldw	r2,20(r16)
   42cf0:	80800215 	stw	r2,8(r16)
   42cf4:	18002326 	beq	r3,zero,42d84 <__swsetup_r+0x104>
   42cf8:	0005883a 	mov	r2,zero
   42cfc:	dfc00217 	ldw	ra,8(sp)
   42d00:	dc400117 	ldw	r17,4(sp)
   42d04:	dc000017 	ldw	r16,0(sp)
   42d08:	dec00304 	addi	sp,sp,12
   42d0c:	f800283a 	ret
   42d10:	10c0040c 	andi	r3,r2,16
   42d14:	18ffffcc 	andi	r3,r3,65535
   42d18:	18e0001c 	xori	r3,r3,32768
   42d1c:	18e00004 	addi	r3,r3,-32768
   42d20:	18001e26 	beq	r3,zero,42d9c <__swsetup_r+0x11c>
   42d24:	10c0010c 	andi	r3,r2,4
   42d28:	18ffffcc 	andi	r3,r3,65535
   42d2c:	18e0001c 	xori	r3,r3,32768
   42d30:	18e00004 	addi	r3,r3,-32768
   42d34:	1800211e 	bne	r3,zero,42dbc <__swsetup_r+0x13c>
   42d38:	80c00417 	ldw	r3,16(r16)
   42d3c:	11400214 	ori	r5,r2,8
   42d40:	8140030d 	sth	r5,12(r16)
   42d44:	2805883a 	mov	r2,r5
   42d48:	183fe11e 	bne	r3,zero,42cd0 <__alt_data_end+0xfffdbbd0>
   42d4c:	1140a00c 	andi	r5,r2,640
   42d50:	01008004 	movi	r4,512
   42d54:	293fde26 	beq	r5,r4,42cd0 <__alt_data_end+0xfffdbbd0>
   42d58:	8809883a 	mov	r4,r17
   42d5c:	800b883a 	mov	r5,r16
   42d60:	00456340 	call	45634 <__smakebuf_r>
   42d64:	8080030b 	ldhu	r2,12(r16)
   42d68:	80c00417 	ldw	r3,16(r16)
   42d6c:	003fd806 	br	42cd0 <__alt_data_end+0xfffdbbd0>
   42d70:	80800517 	ldw	r2,20(r16)
   42d74:	80000215 	stw	zero,8(r16)
   42d78:	0085c83a 	sub	r2,zero,r2
   42d7c:	80800615 	stw	r2,24(r16)
   42d80:	183fdd1e 	bne	r3,zero,42cf8 <__alt_data_end+0xfffdbbf8>
   42d84:	8080030b 	ldhu	r2,12(r16)
   42d88:	1080200c 	andi	r2,r2,128
   42d8c:	10bfffcc 	andi	r2,r2,65535
   42d90:	10a0001c 	xori	r2,r2,32768
   42d94:	10a00004 	addi	r2,r2,-32768
   42d98:	103fd826 	beq	r2,zero,42cfc <__alt_data_end+0xfffdbbfc>
   42d9c:	00bfffc4 	movi	r2,-1
   42da0:	003fd606 	br	42cfc <__alt_data_end+0xfffdbbfc>
   42da4:	1009883a 	mov	r4,r2
   42da8:	00448c00 	call	448c0 <__sinit>
   42dac:	003fc006 	br	42cb0 <__alt_data_end+0xfffdbbb0>
   42db0:	0005883a 	mov	r2,zero
   42db4:	80800215 	stw	r2,8(r16)
   42db8:	003fce06 	br	42cf4 <__alt_data_end+0xfffdbbf4>
   42dbc:	81400c17 	ldw	r5,48(r16)
   42dc0:	28000626 	beq	r5,zero,42ddc <__swsetup_r+0x15c>
   42dc4:	80c01004 	addi	r3,r16,64
   42dc8:	28c00326 	beq	r5,r3,42dd8 <__swsetup_r+0x158>
   42dcc:	8809883a 	mov	r4,r17
   42dd0:	0044c440 	call	44c44 <_free_r>
   42dd4:	8080030b 	ldhu	r2,12(r16)
   42dd8:	80000c15 	stw	zero,48(r16)
   42ddc:	80c00417 	ldw	r3,16(r16)
   42de0:	013ff6c4 	movi	r4,-37
   42de4:	2084703a 	and	r2,r4,r2
   42de8:	80000115 	stw	zero,4(r16)
   42dec:	80c00015 	stw	r3,0(r16)
   42df0:	003fd206 	br	42d3c <__alt_data_end+0xfffdbc3c>

00042df4 <quorem>:
   42df4:	defff704 	addi	sp,sp,-36
   42df8:	dc400115 	stw	r17,4(sp)
   42dfc:	20800417 	ldw	r2,16(r4)
   42e00:	2c400417 	ldw	r17,16(r5)
   42e04:	dd800615 	stw	r22,24(sp)
   42e08:	dd400515 	stw	r21,20(sp)
   42e0c:	dfc00815 	stw	ra,32(sp)
   42e10:	ddc00715 	stw	r23,28(sp)
   42e14:	dd000415 	stw	r20,16(sp)
   42e18:	dcc00315 	stw	r19,12(sp)
   42e1c:	dc800215 	stw	r18,8(sp)
   42e20:	dc000015 	stw	r16,0(sp)
   42e24:	202b883a 	mov	r21,r4
   42e28:	282d883a 	mov	r22,r5
   42e2c:	14407116 	blt	r2,r17,42ff4 <quorem+0x200>
   42e30:	88800104 	addi	r2,r17,4
   42e34:	1085883a 	add	r2,r2,r2
   42e38:	1085883a 	add	r2,r2,r2
   42e3c:	28a7883a 	add	r19,r5,r2
   42e40:	2085883a 	add	r2,r4,r2
   42e44:	15c00017 	ldw	r23,0(r2)
   42e48:	99400017 	ldw	r5,0(r19)
   42e4c:	8c7fffc4 	addi	r17,r17,-1
   42e50:	b809883a 	mov	r4,r23
   42e54:	29400044 	addi	r5,r5,1
   42e58:	00498140 	call	49814 <__udivsi3>
   42e5c:	1025883a 	mov	r18,r2
   42e60:	b4000504 	addi	r16,r22,20
   42e64:	ad000504 	addi	r20,r21,20
   42e68:	10002d26 	beq	r2,zero,42f20 <quorem+0x12c>
   42e6c:	800d883a 	mov	r6,r16
   42e70:	a007883a 	mov	r3,r20
   42e74:	000f883a 	mov	r7,zero
   42e78:	0005883a 	mov	r2,zero
   42e7c:	32c00017 	ldw	r11,0(r6)
   42e80:	1a400017 	ldw	r9,0(r3)
   42e84:	31800104 	addi	r6,r6,4
   42e88:	5abfffcc 	andi	r10,r11,65535
   42e8c:	5495383a 	mul	r10,r10,r18
   42e90:	5816d43a 	srli	r11,r11,16
   42e94:	4a3fffcc 	andi	r8,r9,65535
   42e98:	3a95883a 	add	r10,r7,r10
   42e9c:	500ed43a 	srli	r7,r10,16
   42ea0:	5c97383a 	mul	r11,r11,r18
   42ea4:	4085883a 	add	r2,r8,r2
   42ea8:	52bfffcc 	andi	r10,r10,65535
   42eac:	1291c83a 	sub	r8,r2,r10
   42eb0:	4804d43a 	srli	r2,r9,16
   42eb4:	3acf883a 	add	r7,r7,r11
   42eb8:	4015d43a 	srai	r10,r8,16
   42ebc:	393fffcc 	andi	r4,r7,65535
   42ec0:	1105c83a 	sub	r2,r2,r4
   42ec4:	1285883a 	add	r2,r2,r10
   42ec8:	1880008d 	sth	r2,2(r3)
   42ecc:	1a00000d 	sth	r8,0(r3)
   42ed0:	380ed43a 	srli	r7,r7,16
   42ed4:	1005d43a 	srai	r2,r2,16
   42ed8:	18c00104 	addi	r3,r3,4
   42edc:	99bfe72e 	bgeu	r19,r6,42e7c <__alt_data_end+0xfffdbd7c>
   42ee0:	b8000f1e 	bne	r23,zero,42f20 <quorem+0x12c>
   42ee4:	88800144 	addi	r2,r17,5
   42ee8:	1085883a 	add	r2,r2,r2
   42eec:	1085883a 	add	r2,r2,r2
   42ef0:	a887883a 	add	r3,r21,r2
   42ef4:	18bfff04 	addi	r2,r3,-4
   42ef8:	a080082e 	bgeu	r20,r2,42f1c <quorem+0x128>
   42efc:	18ffff17 	ldw	r3,-4(r3)
   42f00:	18000326 	beq	r3,zero,42f10 <quorem+0x11c>
   42f04:	00000506 	br	42f1c <quorem+0x128>
   42f08:	10c00017 	ldw	r3,0(r2)
   42f0c:	1800031e 	bne	r3,zero,42f1c <quorem+0x128>
   42f10:	10bfff04 	addi	r2,r2,-4
   42f14:	8c7fffc4 	addi	r17,r17,-1
   42f18:	a0bffb36 	bltu	r20,r2,42f08 <__alt_data_end+0xfffdbe08>
   42f1c:	ac400415 	stw	r17,16(r21)
   42f20:	a809883a 	mov	r4,r21
   42f24:	b00b883a 	mov	r5,r22
   42f28:	0046bf80 	call	46bf8 <__mcmp>
   42f2c:	10002516 	blt	r2,zero,42fc4 <quorem+0x1d0>
   42f30:	94800044 	addi	r18,r18,1
   42f34:	a007883a 	mov	r3,r20
   42f38:	000b883a 	mov	r5,zero
   42f3c:	1a000017 	ldw	r8,0(r3)
   42f40:	81c00017 	ldw	r7,0(r16)
   42f44:	84000104 	addi	r16,r16,4
   42f48:	41bfffcc 	andi	r6,r8,65535
   42f4c:	38bfffcc 	andi	r2,r7,65535
   42f50:	314b883a 	add	r5,r6,r5
   42f54:	288dc83a 	sub	r6,r5,r2
   42f58:	380ed43a 	srli	r7,r7,16
   42f5c:	400ad43a 	srli	r5,r8,16
   42f60:	3005d43a 	srai	r2,r6,16
   42f64:	1980000d 	sth	r6,0(r3)
   42f68:	29cbc83a 	sub	r5,r5,r7
   42f6c:	288b883a 	add	r5,r5,r2
   42f70:	1940008d 	sth	r5,2(r3)
   42f74:	280bd43a 	srai	r5,r5,16
   42f78:	18c00104 	addi	r3,r3,4
   42f7c:	9c3fef2e 	bgeu	r19,r16,42f3c <__alt_data_end+0xfffdbe3c>
   42f80:	88800144 	addi	r2,r17,5
   42f84:	1085883a 	add	r2,r2,r2
   42f88:	1085883a 	add	r2,r2,r2
   42f8c:	a885883a 	add	r2,r21,r2
   42f90:	10c00017 	ldw	r3,0(r2)
   42f94:	18000b1e 	bne	r3,zero,42fc4 <quorem+0x1d0>
   42f98:	10ffff04 	addi	r3,r2,-4
   42f9c:	a0c0082e 	bgeu	r20,r3,42fc0 <quorem+0x1cc>
   42fa0:	10bfff17 	ldw	r2,-4(r2)
   42fa4:	10000326 	beq	r2,zero,42fb4 <quorem+0x1c0>
   42fa8:	00000506 	br	42fc0 <quorem+0x1cc>
   42fac:	18800017 	ldw	r2,0(r3)
   42fb0:	1000031e 	bne	r2,zero,42fc0 <quorem+0x1cc>
   42fb4:	18ffff04 	addi	r3,r3,-4
   42fb8:	8c7fffc4 	addi	r17,r17,-1
   42fbc:	a0fffb36 	bltu	r20,r3,42fac <__alt_data_end+0xfffdbeac>
   42fc0:	ac400415 	stw	r17,16(r21)
   42fc4:	9005883a 	mov	r2,r18
   42fc8:	dfc00817 	ldw	ra,32(sp)
   42fcc:	ddc00717 	ldw	r23,28(sp)
   42fd0:	dd800617 	ldw	r22,24(sp)
   42fd4:	dd400517 	ldw	r21,20(sp)
   42fd8:	dd000417 	ldw	r20,16(sp)
   42fdc:	dcc00317 	ldw	r19,12(sp)
   42fe0:	dc800217 	ldw	r18,8(sp)
   42fe4:	dc400117 	ldw	r17,4(sp)
   42fe8:	dc000017 	ldw	r16,0(sp)
   42fec:	dec00904 	addi	sp,sp,36
   42ff0:	f800283a 	ret
   42ff4:	0005883a 	mov	r2,zero
   42ff8:	003ff306 	br	42fc8 <__alt_data_end+0xfffdbec8>

00042ffc <_dtoa_r>:
   42ffc:	20801017 	ldw	r2,64(r4)
   43000:	deffdf04 	addi	sp,sp,-132
   43004:	dcc01a15 	stw	r19,104(sp)
   43008:	dc801915 	stw	r18,100(sp)
   4300c:	dc401815 	stw	r17,96(sp)
   43010:	dc001715 	stw	r16,92(sp)
   43014:	dfc02015 	stw	ra,128(sp)
   43018:	df001f15 	stw	fp,124(sp)
   4301c:	ddc01e15 	stw	r23,120(sp)
   43020:	dd801d15 	stw	r22,116(sp)
   43024:	dd401c15 	stw	r21,112(sp)
   43028:	dd001b15 	stw	r20,108(sp)
   4302c:	d9400315 	stw	r5,12(sp)
   43030:	d9c00415 	stw	r7,16(sp)
   43034:	2021883a 	mov	r16,r4
   43038:	3025883a 	mov	r18,r6
   4303c:	dcc02317 	ldw	r19,140(sp)
   43040:	3023883a 	mov	r17,r6
   43044:	10000826 	beq	r2,zero,43068 <_dtoa_r+0x6c>
   43048:	20c01117 	ldw	r3,68(r4)
   4304c:	01800044 	movi	r6,1
   43050:	100b883a 	mov	r5,r2
   43054:	30cc983a 	sll	r6,r6,r3
   43058:	10c00115 	stw	r3,4(r2)
   4305c:	11800215 	stw	r6,8(r2)
   43060:	00463fc0 	call	463fc <_Bfree>
   43064:	80001015 	stw	zero,64(r16)
   43068:	90002f16 	blt	r18,zero,43128 <_dtoa_r+0x12c>
   4306c:	98000015 	stw	zero,0(r19)
   43070:	90dffc2c 	andhi	r3,r18,32752
   43074:	009ffc34 	movhi	r2,32752
   43078:	18801c26 	beq	r3,r2,430ec <_dtoa_r+0xf0>
   4307c:	d9000317 	ldw	r4,12(sp)
   43080:	880b883a 	mov	r5,r17
   43084:	000d883a 	mov	r6,zero
   43088:	000f883a 	mov	r7,zero
   4308c:	00492c00 	call	492c0 <__nedf2>
   43090:	10002c1e 	bne	r2,zero,43144 <_dtoa_r+0x148>
   43094:	d9002217 	ldw	r4,136(sp)
   43098:	d9c02417 	ldw	r7,144(sp)
   4309c:	00800044 	movi	r2,1
   430a0:	20800015 	stw	r2,0(r4)
   430a4:	38019426 	beq	r7,zero,436f8 <_dtoa_r+0x6fc>
   430a8:	00800174 	movhi	r2,5
   430ac:	10b0d344 	addi	r2,r2,-15539
   430b0:	38800015 	stw	r2,0(r7)
   430b4:	15ffffc4 	addi	r23,r2,-1
   430b8:	b805883a 	mov	r2,r23
   430bc:	dfc02017 	ldw	ra,128(sp)
   430c0:	df001f17 	ldw	fp,124(sp)
   430c4:	ddc01e17 	ldw	r23,120(sp)
   430c8:	dd801d17 	ldw	r22,116(sp)
   430cc:	dd401c17 	ldw	r21,112(sp)
   430d0:	dd001b17 	ldw	r20,108(sp)
   430d4:	dcc01a17 	ldw	r19,104(sp)
   430d8:	dc801917 	ldw	r18,100(sp)
   430dc:	dc401817 	ldw	r17,96(sp)
   430e0:	dc001717 	ldw	r16,92(sp)
   430e4:	dec02104 	addi	sp,sp,132
   430e8:	f800283a 	ret
   430ec:	d8c02217 	ldw	r3,136(sp)
   430f0:	d9000317 	ldw	r4,12(sp)
   430f4:	0089c3c4 	movi	r2,9999
   430f8:	18800015 	stw	r2,0(r3)
   430fc:	20016c26 	beq	r4,zero,436b0 <_dtoa_r+0x6b4>
   43100:	05c00174 	movhi	r23,5
   43104:	bdf0df04 	addi	r23,r23,-15492
   43108:	d9c02417 	ldw	r7,144(sp)
   4310c:	383fea26 	beq	r7,zero,430b8 <__alt_data_end+0xfffdbfb8>
   43110:	b88000c7 	ldb	r2,3(r23)
   43114:	10016d1e 	bne	r2,zero,436cc <_dtoa_r+0x6d0>
   43118:	b88000c4 	addi	r2,r23,3
   4311c:	d8c02417 	ldw	r3,144(sp)
   43120:	18800015 	stw	r2,0(r3)
   43124:	003fe406 	br	430b8 <__alt_data_end+0xfffdbfb8>
   43128:	04600034 	movhi	r17,32768
   4312c:	8c7fffc4 	addi	r17,r17,-1
   43130:	9462703a 	and	r17,r18,r17
   43134:	00800044 	movi	r2,1
   43138:	98800015 	stw	r2,0(r19)
   4313c:	8825883a 	mov	r18,r17
   43140:	003fcb06 	br	43070 <__alt_data_end+0xfffdbf70>
   43144:	d9400317 	ldw	r5,12(sp)
   43148:	9028d53a 	srli	r20,r18,20
   4314c:	d8800204 	addi	r2,sp,8
   43150:	d8800015 	stw	r2,0(sp)
   43154:	8009883a 	mov	r4,r16
   43158:	880d883a 	mov	r6,r17
   4315c:	d9c00104 	addi	r7,sp,4
   43160:	0046fa00 	call	46fa0 <__d2b>
   43164:	a501ffcc 	andi	r20,r20,2047
   43168:	1039883a 	mov	fp,r2
   4316c:	a001591e 	bne	r20,zero,436d4 <_dtoa_r+0x6d8>
   43170:	dd400217 	ldw	r21,8(sp)
   43174:	dd000117 	ldw	r20,4(sp)
   43178:	00befbc4 	movi	r2,-1041
   4317c:	ad29883a 	add	r20,r21,r20
   43180:	a082d216 	blt	r20,r2,43ccc <_dtoa_r+0xcd0>
   43184:	d8c00317 	ldw	r3,12(sp)
   43188:	013f0384 	movi	r4,-1010
   4318c:	2509c83a 	sub	r4,r4,r20
   43190:	a0810484 	addi	r2,r20,1042
   43194:	9124983a 	sll	r18,r18,r4
   43198:	1884d83a 	srl	r2,r3,r2
   4319c:	9088b03a 	or	r4,r18,r2
   431a0:	00495d80 	call	495d8 <__floatunsidf>
   431a4:	1009883a 	mov	r4,r2
   431a8:	017f8434 	movhi	r5,65040
   431ac:	00800044 	movi	r2,1
   431b0:	194b883a 	add	r5,r3,r5
   431b4:	a53fffc4 	addi	r20,r20,-1
   431b8:	d8800f15 	stw	r2,60(sp)
   431bc:	000d883a 	mov	r6,zero
   431c0:	01cffe34 	movhi	r7,16376
   431c4:	0048f200 	call	48f20 <__subdf3>
   431c8:	1009883a 	mov	r4,r2
   431cc:	180b883a 	mov	r5,r3
   431d0:	0198dbf4 	movhi	r6,25455
   431d4:	3190d844 	addi	r6,r6,17249
   431d8:	01cff4f4 	movhi	r7,16339
   431dc:	39e1e9c4 	addi	r7,r7,-30809
   431e0:	0048f800 	call	48f80 <__muldf3>
   431e4:	180b883a 	mov	r5,r3
   431e8:	01a2d874 	movhi	r6,35681
   431ec:	31b22cc4 	addi	r6,r6,-14157
   431f0:	01cff1f4 	movhi	r7,16327
   431f4:	39e28a04 	addi	r7,r7,-30168
   431f8:	1009883a 	mov	r4,r2
   431fc:	0048ecc0 	call	48ecc <__adddf3>
   43200:	a009883a 	mov	r4,r20
   43204:	1027883a 	mov	r19,r2
   43208:	1825883a 	mov	r18,r3
   4320c:	00494400 	call	49440 <__floatsidf>
   43210:	1009883a 	mov	r4,r2
   43214:	180b883a 	mov	r5,r3
   43218:	019427f4 	movhi	r6,20639
   4321c:	319e7ec4 	addi	r6,r6,31227
   43220:	01cff4f4 	movhi	r7,16339
   43224:	39d104c4 	addi	r7,r7,17427
   43228:	0048f800 	call	48f80 <__muldf3>
   4322c:	9809883a 	mov	r4,r19
   43230:	900b883a 	mov	r5,r18
   43234:	100d883a 	mov	r6,r2
   43238:	180f883a 	mov	r7,r3
   4323c:	0048ecc0 	call	48ecc <__adddf3>
   43240:	1009883a 	mov	r4,r2
   43244:	180b883a 	mov	r5,r3
   43248:	1027883a 	mov	r19,r2
   4324c:	1825883a 	mov	r18,r3
   43250:	00495140 	call	49514 <__fixdfsi>
   43254:	9809883a 	mov	r4,r19
   43258:	900b883a 	mov	r5,r18
   4325c:	000d883a 	mov	r6,zero
   43260:	000f883a 	mov	r7,zero
   43264:	d8800615 	stw	r2,24(sp)
   43268:	00493e40 	call	493e4 <__ltdf2>
   4326c:	10027e16 	blt	r2,zero,43c68 <_dtoa_r+0xc6c>
   43270:	d8c00617 	ldw	r3,24(sp)
   43274:	00800584 	movi	r2,22
   43278:	10c26c36 	bltu	r2,r3,43c2c <_dtoa_r+0xc30>
   4327c:	180490fa 	slli	r2,r3,3
   43280:	00c00174 	movhi	r3,5
   43284:	18f10504 	addi	r3,r3,-15340
   43288:	d9800317 	ldw	r6,12(sp)
   4328c:	1885883a 	add	r2,r3,r2
   43290:	11000017 	ldw	r4,0(r2)
   43294:	11400117 	ldw	r5,4(r2)
   43298:	880f883a 	mov	r7,r17
   4329c:	004931c0 	call	4931c <__gtdf2>
   432a0:	00828f0e 	bge	zero,r2,43ce0 <_dtoa_r+0xce4>
   432a4:	d8800617 	ldw	r2,24(sp)
   432a8:	d8000d15 	stw	zero,52(sp)
   432ac:	10bfffc4 	addi	r2,r2,-1
   432b0:	d8800615 	stw	r2,24(sp)
   432b4:	ad29c83a 	sub	r20,r21,r20
   432b8:	a53fffc4 	addi	r20,r20,-1
   432bc:	a0026616 	blt	r20,zero,43c58 <_dtoa_r+0xc5c>
   432c0:	dd000715 	stw	r20,28(sp)
   432c4:	d8000815 	stw	zero,32(sp)
   432c8:	d8800617 	ldw	r2,24(sp)
   432cc:	10025a16 	blt	r2,zero,43c38 <_dtoa_r+0xc3c>
   432d0:	d8c00717 	ldw	r3,28(sp)
   432d4:	d8800b15 	stw	r2,44(sp)
   432d8:	d8000a15 	stw	zero,40(sp)
   432dc:	1887883a 	add	r3,r3,r2
   432e0:	d8c00715 	stw	r3,28(sp)
   432e4:	d9c00417 	ldw	r7,16(sp)
   432e8:	00800244 	movi	r2,9
   432ec:	11c10536 	bltu	r2,r7,43704 <_dtoa_r+0x708>
   432f0:	00800144 	movi	r2,5
   432f4:	11c4c60e 	bge	r2,r7,44610 <_dtoa_r+0x1614>
   432f8:	39ffff04 	addi	r7,r7,-4
   432fc:	d9c00415 	stw	r7,16(sp)
   43300:	0027883a 	mov	r19,zero
   43304:	d9c00417 	ldw	r7,16(sp)
   43308:	008000c4 	movi	r2,3
   4330c:	3883a226 	beq	r7,r2,44198 <_dtoa_r+0x119c>
   43310:	11c2bc16 	blt	r2,r7,43e04 <_dtoa_r+0xe08>
   43314:	00800084 	movi	r2,2
   43318:	3880fb1e 	bne	r7,r2,43708 <_dtoa_r+0x70c>
   4331c:	d8000c15 	stw	zero,48(sp)
   43320:	d9002117 	ldw	r4,132(sp)
   43324:	0103ae0e 	bge	zero,r4,441e0 <_dtoa_r+0x11e4>
   43328:	2025883a 	mov	r18,r4
   4332c:	d9000e15 	stw	r4,56(sp)
   43330:	d9000915 	stw	r4,36(sp)
   43334:	80001115 	stw	zero,68(r16)
   43338:	008005c4 	movi	r2,23
   4333c:	1484b22e 	bgeu	r2,r18,44608 <_dtoa_r+0x160c>
   43340:	00c00044 	movi	r3,1
   43344:	00800104 	movi	r2,4
   43348:	1085883a 	add	r2,r2,r2
   4334c:	11000504 	addi	r4,r2,20
   43350:	180b883a 	mov	r5,r3
   43354:	18c00044 	addi	r3,r3,1
   43358:	913ffb2e 	bgeu	r18,r4,43348 <__alt_data_end+0xfffdc248>
   4335c:	81401115 	stw	r5,68(r16)
   43360:	8009883a 	mov	r4,r16
   43364:	00463540 	call	46354 <_Balloc>
   43368:	102f883a 	mov	r23,r2
   4336c:	80801015 	stw	r2,64(r16)
   43370:	00800384 	movi	r2,14
   43374:	1480f036 	bltu	r2,r18,43738 <_dtoa_r+0x73c>
   43378:	9800ef26 	beq	r19,zero,43738 <_dtoa_r+0x73c>
   4337c:	d8800617 	ldw	r2,24(sp)
   43380:	00839c0e 	bge	zero,r2,441f4 <_dtoa_r+0x11f8>
   43384:	d8c00617 	ldw	r3,24(sp)
   43388:	108003cc 	andi	r2,r2,15
   4338c:	100490fa 	slli	r2,r2,3
   43390:	182bd13a 	srai	r21,r3,4
   43394:	00c00174 	movhi	r3,5
   43398:	18f10504 	addi	r3,r3,-15340
   4339c:	1885883a 	add	r2,r3,r2
   433a0:	a8c0040c 	andi	r3,r21,16
   433a4:	12800017 	ldw	r10,0(r2)
   433a8:	15800117 	ldw	r22,4(r2)
   433ac:	18038726 	beq	r3,zero,441cc <_dtoa_r+0x11d0>
   433b0:	00800174 	movhi	r2,5
   433b4:	10b0fb04 	addi	r2,r2,-15380
   433b8:	11800817 	ldw	r6,32(r2)
   433bc:	11c00917 	ldw	r7,36(r2)
   433c0:	d9000317 	ldw	r4,12(sp)
   433c4:	880b883a 	mov	r5,r17
   433c8:	da801515 	stw	r10,84(sp)
   433cc:	00404680 	call	40468 <__divdf3>
   433d0:	da801517 	ldw	r10,84(sp)
   433d4:	d8801015 	stw	r2,64(sp)
   433d8:	1829883a 	mov	r20,r3
   433dc:	ad4003cc 	andi	r21,r21,15
   433e0:	048000c4 	movi	r18,3
   433e4:	a8001126 	beq	r21,zero,4342c <_dtoa_r+0x430>
   433e8:	04c00174 	movhi	r19,5
   433ec:	9cf0fb04 	addi	r19,r19,-15380
   433f0:	5005883a 	mov	r2,r10
   433f4:	b007883a 	mov	r3,r22
   433f8:	a980004c 	andi	r6,r21,1
   433fc:	1009883a 	mov	r4,r2
   43400:	a82bd07a 	srai	r21,r21,1
   43404:	180b883a 	mov	r5,r3
   43408:	30000426 	beq	r6,zero,4341c <_dtoa_r+0x420>
   4340c:	99800017 	ldw	r6,0(r19)
   43410:	99c00117 	ldw	r7,4(r19)
   43414:	94800044 	addi	r18,r18,1
   43418:	0048f800 	call	48f80 <__muldf3>
   4341c:	9cc00204 	addi	r19,r19,8
   43420:	a83ff51e 	bne	r21,zero,433f8 <__alt_data_end+0xfffdc2f8>
   43424:	1015883a 	mov	r10,r2
   43428:	182d883a 	mov	r22,r3
   4342c:	d9001017 	ldw	r4,64(sp)
   43430:	a00b883a 	mov	r5,r20
   43434:	500d883a 	mov	r6,r10
   43438:	b00f883a 	mov	r7,r22
   4343c:	00404680 	call	40468 <__divdf3>
   43440:	1027883a 	mov	r19,r2
   43444:	1829883a 	mov	r20,r3
   43448:	d8c00d17 	ldw	r3,52(sp)
   4344c:	18000626 	beq	r3,zero,43468 <_dtoa_r+0x46c>
   43450:	9809883a 	mov	r4,r19
   43454:	a00b883a 	mov	r5,r20
   43458:	000d883a 	mov	r6,zero
   4345c:	01cffc34 	movhi	r7,16368
   43460:	00493e40 	call	493e4 <__ltdf2>
   43464:	10040e16 	blt	r2,zero,444a0 <_dtoa_r+0x14a4>
   43468:	9009883a 	mov	r4,r18
   4346c:	00494400 	call	49440 <__floatsidf>
   43470:	1009883a 	mov	r4,r2
   43474:	180b883a 	mov	r5,r3
   43478:	980d883a 	mov	r6,r19
   4347c:	a00f883a 	mov	r7,r20
   43480:	0048f800 	call	48f80 <__muldf3>
   43484:	1009883a 	mov	r4,r2
   43488:	180b883a 	mov	r5,r3
   4348c:	000d883a 	mov	r6,zero
   43490:	01d00734 	movhi	r7,16412
   43494:	0048ecc0 	call	48ecc <__adddf3>
   43498:	057f3034 	movhi	r21,64704
   4349c:	1d6b883a 	add	r21,r3,r21
   434a0:	d8c00917 	ldw	r3,36(sp)
   434a4:	1025883a 	mov	r18,r2
   434a8:	18031f26 	beq	r3,zero,44128 <_dtoa_r+0x112c>
   434ac:	d8800617 	ldw	r2,24(sp)
   434b0:	dac00917 	ldw	r11,36(sp)
   434b4:	d8801315 	stw	r2,76(sp)
   434b8:	d8c00c17 	ldw	r3,48(sp)
   434bc:	18039026 	beq	r3,zero,44300 <_dtoa_r+0x1304>
   434c0:	58bfffc4 	addi	r2,r11,-1
   434c4:	100490fa 	slli	r2,r2,3
   434c8:	00c00174 	movhi	r3,5
   434cc:	18f10504 	addi	r3,r3,-15340
   434d0:	0009883a 	mov	r4,zero
   434d4:	1885883a 	add	r2,r3,r2
   434d8:	11800017 	ldw	r6,0(r2)
   434dc:	11c00117 	ldw	r7,4(r2)
   434e0:	014ff834 	movhi	r5,16352
   434e4:	dac01615 	stw	r11,88(sp)
   434e8:	00404680 	call	40468 <__divdf3>
   434ec:	900d883a 	mov	r6,r18
   434f0:	a80f883a 	mov	r7,r21
   434f4:	1009883a 	mov	r4,r2
   434f8:	180b883a 	mov	r5,r3
   434fc:	0048f200 	call	48f20 <__subdf3>
   43500:	a00b883a 	mov	r5,r20
   43504:	9809883a 	mov	r4,r19
   43508:	182b883a 	mov	r21,r3
   4350c:	d8801015 	stw	r2,64(sp)
   43510:	00495140 	call	49514 <__fixdfsi>
   43514:	1009883a 	mov	r4,r2
   43518:	d8801515 	stw	r2,84(sp)
   4351c:	00494400 	call	49440 <__floatsidf>
   43520:	9809883a 	mov	r4,r19
   43524:	a00b883a 	mov	r5,r20
   43528:	100d883a 	mov	r6,r2
   4352c:	180f883a 	mov	r7,r3
   43530:	0048f200 	call	48f20 <__subdf3>
   43534:	da401517 	ldw	r9,84(sp)
   43538:	d9001017 	ldw	r4,64(sp)
   4353c:	a80b883a 	mov	r5,r21
   43540:	4d000c04 	addi	r20,r9,48
   43544:	bd000005 	stb	r20,0(r23)
   43548:	100d883a 	mov	r6,r2
   4354c:	180f883a 	mov	r7,r3
   43550:	bd800044 	addi	r22,r23,1
   43554:	1025883a 	mov	r18,r2
   43558:	1827883a 	mov	r19,r3
   4355c:	004931c0 	call	4931c <__gtdf2>
   43560:	00842216 	blt	zero,r2,445ec <_dtoa_r+0x15f0>
   43564:	0009883a 	mov	r4,zero
   43568:	014ffc34 	movhi	r5,16368
   4356c:	900d883a 	mov	r6,r18
   43570:	980f883a 	mov	r7,r19
   43574:	0048f200 	call	48f20 <__subdf3>
   43578:	d9001017 	ldw	r4,64(sp)
   4357c:	a80b883a 	mov	r5,r21
   43580:	100d883a 	mov	r6,r2
   43584:	180f883a 	mov	r7,r3
   43588:	004931c0 	call	4931c <__gtdf2>
   4358c:	dac01617 	ldw	r11,88(sp)
   43590:	00841316 	blt	zero,r2,445e0 <_dtoa_r+0x15e4>
   43594:	00800044 	movi	r2,1
   43598:	12c0670e 	bge	r2,r11,43738 <_dtoa_r+0x73c>
   4359c:	bad7883a 	add	r11,r23,r11
   435a0:	df001115 	stw	fp,68(sp)
   435a4:	dc401215 	stw	r17,72(sp)
   435a8:	5839883a 	mov	fp,r11
   435ac:	dc401017 	ldw	r17,64(sp)
   435b0:	00000806 	br	435d4 <_dtoa_r+0x5d8>
   435b4:	0048f200 	call	48f20 <__subdf3>
   435b8:	1009883a 	mov	r4,r2
   435bc:	180b883a 	mov	r5,r3
   435c0:	880d883a 	mov	r6,r17
   435c4:	a80f883a 	mov	r7,r21
   435c8:	00493e40 	call	493e4 <__ltdf2>
   435cc:	1003ee16 	blt	r2,zero,44588 <_dtoa_r+0x158c>
   435d0:	b703f126 	beq	r22,fp,44598 <_dtoa_r+0x159c>
   435d4:	8809883a 	mov	r4,r17
   435d8:	a80b883a 	mov	r5,r21
   435dc:	000d883a 	mov	r6,zero
   435e0:	01d00934 	movhi	r7,16420
   435e4:	0048f800 	call	48f80 <__muldf3>
   435e8:	000d883a 	mov	r6,zero
   435ec:	01d00934 	movhi	r7,16420
   435f0:	9009883a 	mov	r4,r18
   435f4:	980b883a 	mov	r5,r19
   435f8:	1023883a 	mov	r17,r2
   435fc:	182b883a 	mov	r21,r3
   43600:	0048f800 	call	48f80 <__muldf3>
   43604:	180b883a 	mov	r5,r3
   43608:	1009883a 	mov	r4,r2
   4360c:	1825883a 	mov	r18,r3
   43610:	1027883a 	mov	r19,r2
   43614:	00495140 	call	49514 <__fixdfsi>
   43618:	1009883a 	mov	r4,r2
   4361c:	1029883a 	mov	r20,r2
   43620:	00494400 	call	49440 <__floatsidf>
   43624:	9809883a 	mov	r4,r19
   43628:	900b883a 	mov	r5,r18
   4362c:	100d883a 	mov	r6,r2
   43630:	180f883a 	mov	r7,r3
   43634:	0048f200 	call	48f20 <__subdf3>
   43638:	a5000c04 	addi	r20,r20,48
   4363c:	b5000005 	stb	r20,0(r22)
   43640:	1009883a 	mov	r4,r2
   43644:	180b883a 	mov	r5,r3
   43648:	880d883a 	mov	r6,r17
   4364c:	a80f883a 	mov	r7,r21
   43650:	1025883a 	mov	r18,r2
   43654:	1827883a 	mov	r19,r3
   43658:	00493e40 	call	493e4 <__ltdf2>
   4365c:	b5800044 	addi	r22,r22,1
   43660:	0009883a 	mov	r4,zero
   43664:	014ffc34 	movhi	r5,16368
   43668:	900d883a 	mov	r6,r18
   4366c:	980f883a 	mov	r7,r19
   43670:	103fd00e 	bge	r2,zero,435b4 <__alt_data_end+0xfffdc4b4>
   43674:	d9001317 	ldw	r4,76(sp)
   43678:	df001117 	ldw	fp,68(sp)
   4367c:	d9000615 	stw	r4,24(sp)
   43680:	8009883a 	mov	r4,r16
   43684:	e00b883a 	mov	r5,fp
   43688:	00463fc0 	call	463fc <_Bfree>
   4368c:	d9c00617 	ldw	r7,24(sp)
   43690:	d8c02217 	ldw	r3,136(sp)
   43694:	d9002417 	ldw	r4,144(sp)
   43698:	b0000005 	stb	zero,0(r22)
   4369c:	38800044 	addi	r2,r7,1
   436a0:	18800015 	stw	r2,0(r3)
   436a4:	203e8426 	beq	r4,zero,430b8 <__alt_data_end+0xfffdbfb8>
   436a8:	25800015 	stw	r22,0(r4)
   436ac:	003e8206 	br	430b8 <__alt_data_end+0xfffdbfb8>
   436b0:	00800434 	movhi	r2,16
   436b4:	10bfffc4 	addi	r2,r2,-1
   436b8:	90a4703a 	and	r18,r18,r2
   436bc:	903e901e 	bne	r18,zero,43100 <__alt_data_end+0xfffdc000>
   436c0:	05c00174 	movhi	r23,5
   436c4:	bdf0dc04 	addi	r23,r23,-15504
   436c8:	003e8f06 	br	43108 <__alt_data_end+0xfffdc008>
   436cc:	b8800204 	addi	r2,r23,8
   436d0:	003e9206 	br	4311c <__alt_data_end+0xfffdc01c>
   436d4:	01400434 	movhi	r5,16
   436d8:	297fffc4 	addi	r5,r5,-1
   436dc:	894a703a 	and	r5,r17,r5
   436e0:	d9000317 	ldw	r4,12(sp)
   436e4:	294ffc34 	orhi	r5,r5,16368
   436e8:	a53f0044 	addi	r20,r20,-1023
   436ec:	dd400217 	ldw	r21,8(sp)
   436f0:	d8000f15 	stw	zero,60(sp)
   436f4:	003eb106 	br	431bc <__alt_data_end+0xfffdc0bc>
   436f8:	05c00174 	movhi	r23,5
   436fc:	bdf0d304 	addi	r23,r23,-15540
   43700:	003e6d06 	br	430b8 <__alt_data_end+0xfffdbfb8>
   43704:	d8000415 	stw	zero,16(sp)
   43708:	80001115 	stw	zero,68(r16)
   4370c:	8009883a 	mov	r4,r16
   43710:	000b883a 	mov	r5,zero
   43714:	00463540 	call	46354 <_Balloc>
   43718:	01ffffc4 	movi	r7,-1
   4371c:	102f883a 	mov	r23,r2
   43720:	80801015 	stw	r2,64(r16)
   43724:	00800044 	movi	r2,1
   43728:	d9c00915 	stw	r7,36(sp)
   4372c:	d8002115 	stw	zero,132(sp)
   43730:	d9c00e15 	stw	r7,56(sp)
   43734:	d8800c15 	stw	r2,48(sp)
   43738:	d8800117 	ldw	r2,4(sp)
   4373c:	10008b16 	blt	r2,zero,4396c <_dtoa_r+0x970>
   43740:	d9000617 	ldw	r4,24(sp)
   43744:	00c00384 	movi	r3,14
   43748:	19008816 	blt	r3,r4,4396c <_dtoa_r+0x970>
   4374c:	200490fa 	slli	r2,r4,3
   43750:	d9c02117 	ldw	r7,132(sp)
   43754:	00c00174 	movhi	r3,5
   43758:	18f10504 	addi	r3,r3,-15340
   4375c:	1885883a 	add	r2,r3,r2
   43760:	14800017 	ldw	r18,0(r2)
   43764:	14c00117 	ldw	r19,4(r2)
   43768:	3801c916 	blt	r7,zero,43e90 <_dtoa_r+0xe94>
   4376c:	d9000317 	ldw	r4,12(sp)
   43770:	900d883a 	mov	r6,r18
   43774:	980f883a 	mov	r7,r19
   43778:	880b883a 	mov	r5,r17
   4377c:	00404680 	call	40468 <__divdf3>
   43780:	180b883a 	mov	r5,r3
   43784:	1009883a 	mov	r4,r2
   43788:	00495140 	call	49514 <__fixdfsi>
   4378c:	1009883a 	mov	r4,r2
   43790:	102b883a 	mov	r21,r2
   43794:	00494400 	call	49440 <__floatsidf>
   43798:	1009883a 	mov	r4,r2
   4379c:	180b883a 	mov	r5,r3
   437a0:	900d883a 	mov	r6,r18
   437a4:	980f883a 	mov	r7,r19
   437a8:	0048f800 	call	48f80 <__muldf3>
   437ac:	d9000317 	ldw	r4,12(sp)
   437b0:	880b883a 	mov	r5,r17
   437b4:	100d883a 	mov	r6,r2
   437b8:	180f883a 	mov	r7,r3
   437bc:	0048f200 	call	48f20 <__subdf3>
   437c0:	d9c00917 	ldw	r7,36(sp)
   437c4:	1009883a 	mov	r4,r2
   437c8:	a8800c04 	addi	r2,r21,48
   437cc:	b8800005 	stb	r2,0(r23)
   437d0:	01800044 	movi	r6,1
   437d4:	180b883a 	mov	r5,r3
   437d8:	2005883a 	mov	r2,r4
   437dc:	bd800044 	addi	r22,r23,1
   437e0:	39803726 	beq	r7,r6,438c0 <_dtoa_r+0x8c4>
   437e4:	000d883a 	mov	r6,zero
   437e8:	01d00934 	movhi	r7,16420
   437ec:	0048f800 	call	48f80 <__muldf3>
   437f0:	1009883a 	mov	r4,r2
   437f4:	180b883a 	mov	r5,r3
   437f8:	000d883a 	mov	r6,zero
   437fc:	000f883a 	mov	r7,zero
   43800:	1029883a 	mov	r20,r2
   43804:	1823883a 	mov	r17,r3
   43808:	00492640 	call	49264 <__eqdf2>
   4380c:	103f9c26 	beq	r2,zero,43680 <__alt_data_end+0xfffdc580>
   43810:	dd400917 	ldw	r21,36(sp)
   43814:	dc000415 	stw	r16,16(sp)
   43818:	00000906 	br	43840 <_dtoa_r+0x844>
   4381c:	0048f800 	call	48f80 <__muldf3>
   43820:	1009883a 	mov	r4,r2
   43824:	180b883a 	mov	r5,r3
   43828:	000d883a 	mov	r6,zero
   4382c:	000f883a 	mov	r7,zero
   43830:	1029883a 	mov	r20,r2
   43834:	1823883a 	mov	r17,r3
   43838:	00492640 	call	49264 <__eqdf2>
   4383c:	10022926 	beq	r2,zero,440e4 <_dtoa_r+0x10e8>
   43840:	900d883a 	mov	r6,r18
   43844:	980f883a 	mov	r7,r19
   43848:	a009883a 	mov	r4,r20
   4384c:	880b883a 	mov	r5,r17
   43850:	00404680 	call	40468 <__divdf3>
   43854:	180b883a 	mov	r5,r3
   43858:	1009883a 	mov	r4,r2
   4385c:	00495140 	call	49514 <__fixdfsi>
   43860:	1009883a 	mov	r4,r2
   43864:	1021883a 	mov	r16,r2
   43868:	00494400 	call	49440 <__floatsidf>
   4386c:	1009883a 	mov	r4,r2
   43870:	180b883a 	mov	r5,r3
   43874:	900d883a 	mov	r6,r18
   43878:	980f883a 	mov	r7,r19
   4387c:	0048f800 	call	48f80 <__muldf3>
   43880:	a009883a 	mov	r4,r20
   43884:	880b883a 	mov	r5,r17
   43888:	100d883a 	mov	r6,r2
   4388c:	180f883a 	mov	r7,r3
   43890:	0048f200 	call	48f20 <__subdf3>
   43894:	82400c04 	addi	r9,r16,48
   43898:	b2400005 	stb	r9,0(r22)
   4389c:	b5800044 	addi	r22,r22,1
   438a0:	b5d3c83a 	sub	r9,r22,r23
   438a4:	000d883a 	mov	r6,zero
   438a8:	01d00934 	movhi	r7,16420
   438ac:	1009883a 	mov	r4,r2
   438b0:	180b883a 	mov	r5,r3
   438b4:	aa7fd91e 	bne	r21,r9,4381c <__alt_data_end+0xfffdc71c>
   438b8:	802b883a 	mov	r21,r16
   438bc:	dc000417 	ldw	r16,16(sp)
   438c0:	1009883a 	mov	r4,r2
   438c4:	180b883a 	mov	r5,r3
   438c8:	100d883a 	mov	r6,r2
   438cc:	180f883a 	mov	r7,r3
   438d0:	0048ecc0 	call	48ecc <__adddf3>
   438d4:	9009883a 	mov	r4,r18
   438d8:	980b883a 	mov	r5,r19
   438dc:	100d883a 	mov	r6,r2
   438e0:	180f883a 	mov	r7,r3
   438e4:	1023883a 	mov	r17,r2
   438e8:	1829883a 	mov	r20,r3
   438ec:	00493e40 	call	493e4 <__ltdf2>
   438f0:	10000816 	blt	r2,zero,43914 <_dtoa_r+0x918>
   438f4:	9009883a 	mov	r4,r18
   438f8:	980b883a 	mov	r5,r19
   438fc:	880d883a 	mov	r6,r17
   43900:	a00f883a 	mov	r7,r20
   43904:	00492c00 	call	492c0 <__nedf2>
   43908:	103f5d1e 	bne	r2,zero,43680 <__alt_data_end+0xfffdc580>
   4390c:	ad40004c 	andi	r21,r21,1
   43910:	a83f5b26 	beq	r21,zero,43680 <__alt_data_end+0xfffdc580>
   43914:	b53fffc3 	ldbu	r20,-1(r22)
   43918:	b0ffff84 	addi	r3,r22,-2
   4391c:	01400e44 	movi	r5,57
   43920:	00000306 	br	43930 <_dtoa_r+0x934>
   43924:	1d000003 	ldbu	r20,0(r3)
   43928:	102d883a 	mov	r22,r2
   4392c:	18ffffc4 	addi	r3,r3,-1
   43930:	a1003fcc 	andi	r4,r20,255
   43934:	2100201c 	xori	r4,r4,128
   43938:	213fe004 	addi	r4,r4,-128
   4393c:	b0bfffc4 	addi	r2,r22,-1
   43940:	2142ca1e 	bne	r4,r5,4446c <_dtoa_r+0x1470>
   43944:	b8bff71e 	bne	r23,r2,43924 <__alt_data_end+0xfffdc824>
   43948:	d8800617 	ldw	r2,24(sp)
   4394c:	05000c44 	movi	r20,49
   43950:	10800044 	addi	r2,r2,1
   43954:	d8800615 	stw	r2,24(sp)
   43958:	00800c04 	movi	r2,48
   4395c:	b8800005 	stb	r2,0(r23)
   43960:	b805883a 	mov	r2,r23
   43964:	15000005 	stb	r20,0(r2)
   43968:	003f4506 	br	43680 <__alt_data_end+0xfffdc580>
   4396c:	d9c00c17 	ldw	r7,48(sp)
   43970:	3800c926 	beq	r7,zero,43c98 <_dtoa_r+0xc9c>
   43974:	d9c00417 	ldw	r7,16(sp)
   43978:	00c00044 	movi	r3,1
   4397c:	19c16c0e 	bge	r3,r7,43f30 <_dtoa_r+0xf34>
   43980:	d9000917 	ldw	r4,36(sp)
   43984:	d9c00a17 	ldw	r7,40(sp)
   43988:	24ffffc4 	addi	r19,r4,-1
   4398c:	3cc20716 	blt	r7,r19,441ac <_dtoa_r+0x11b0>
   43990:	3ce7c83a 	sub	r19,r7,r19
   43994:	d9c00917 	ldw	r7,36(sp)
   43998:	3802ae16 	blt	r7,zero,44454 <_dtoa_r+0x1458>
   4399c:	dc800817 	ldw	r18,32(sp)
   439a0:	d8800917 	ldw	r2,36(sp)
   439a4:	d8c00817 	ldw	r3,32(sp)
   439a8:	d9c00717 	ldw	r7,28(sp)
   439ac:	8009883a 	mov	r4,r16
   439b0:	1887883a 	add	r3,r3,r2
   439b4:	388f883a 	add	r7,r7,r2
   439b8:	01400044 	movi	r5,1
   439bc:	d8c00815 	stw	r3,32(sp)
   439c0:	d9c00715 	stw	r7,28(sp)
   439c4:	00467540 	call	46754 <__i2b>
   439c8:	102b883a 	mov	r21,r2
   439cc:	90000a26 	beq	r18,zero,439f8 <_dtoa_r+0x9fc>
   439d0:	d8800717 	ldw	r2,28(sp)
   439d4:	0080080e 	bge	zero,r2,439f8 <_dtoa_r+0x9fc>
   439d8:	90812b16 	blt	r18,r2,43e88 <_dtoa_r+0xe8c>
   439dc:	d8c00817 	ldw	r3,32(sp)
   439e0:	d9000717 	ldw	r4,28(sp)
   439e4:	90a5c83a 	sub	r18,r18,r2
   439e8:	1887c83a 	sub	r3,r3,r2
   439ec:	2089c83a 	sub	r4,r4,r2
   439f0:	d8c00815 	stw	r3,32(sp)
   439f4:	d9000715 	stw	r4,28(sp)
   439f8:	d9c00a17 	ldw	r7,40(sp)
   439fc:	01c0140e 	bge	zero,r7,43a50 <_dtoa_r+0xa54>
   43a00:	d8800c17 	ldw	r2,48(sp)
   43a04:	1001de26 	beq	r2,zero,44180 <_dtoa_r+0x1184>
   43a08:	04c00e0e 	bge	zero,r19,43a44 <_dtoa_r+0xa48>
   43a0c:	a80b883a 	mov	r5,r21
   43a10:	8009883a 	mov	r4,r16
   43a14:	980d883a 	mov	r6,r19
   43a18:	00469700 	call	46970 <__pow5mult>
   43a1c:	e00d883a 	mov	r6,fp
   43a20:	8009883a 	mov	r4,r16
   43a24:	100b883a 	mov	r5,r2
   43a28:	102b883a 	mov	r21,r2
   43a2c:	00467900 	call	46790 <__multiply>
   43a30:	1029883a 	mov	r20,r2
   43a34:	e00b883a 	mov	r5,fp
   43a38:	8009883a 	mov	r4,r16
   43a3c:	00463fc0 	call	463fc <_Bfree>
   43a40:	a039883a 	mov	fp,r20
   43a44:	d8c00a17 	ldw	r3,40(sp)
   43a48:	1ccdc83a 	sub	r6,r3,r19
   43a4c:	3001291e 	bne	r6,zero,43ef4 <_dtoa_r+0xef8>
   43a50:	8009883a 	mov	r4,r16
   43a54:	01400044 	movi	r5,1
   43a58:	00467540 	call	46754 <__i2b>
   43a5c:	d9000b17 	ldw	r4,44(sp)
   43a60:	1029883a 	mov	r20,r2
   43a64:	0100050e 	bge	zero,r4,43a7c <_dtoa_r+0xa80>
   43a68:	d9800b17 	ldw	r6,44(sp)
   43a6c:	8009883a 	mov	r4,r16
   43a70:	100b883a 	mov	r5,r2
   43a74:	00469700 	call	46970 <__pow5mult>
   43a78:	1029883a 	mov	r20,r2
   43a7c:	d9c00417 	ldw	r7,16(sp)
   43a80:	00800044 	movi	r2,1
   43a84:	11c0f00e 	bge	r2,r7,43e48 <_dtoa_r+0xe4c>
   43a88:	0023883a 	mov	r17,zero
   43a8c:	d8800b17 	ldw	r2,44(sp)
   43a90:	1001741e 	bne	r2,zero,44064 <_dtoa_r+0x1068>
   43a94:	00800044 	movi	r2,1
   43a98:	d8c00717 	ldw	r3,28(sp)
   43a9c:	10c5883a 	add	r2,r2,r3
   43aa0:	108007cc 	andi	r2,r2,31
   43aa4:	10008026 	beq	r2,zero,43ca8 <_dtoa_r+0xcac>
   43aa8:	01000804 	movi	r4,32
   43aac:	2089c83a 	sub	r4,r4,r2
   43ab0:	00c00104 	movi	r3,4
   43ab4:	1902d00e 	bge	r3,r4,445f8 <_dtoa_r+0x15fc>
   43ab8:	d9000817 	ldw	r4,32(sp)
   43abc:	d9c00717 	ldw	r7,28(sp)
   43ac0:	00c00704 	movi	r3,28
   43ac4:	1885c83a 	sub	r2,r3,r2
   43ac8:	2089883a 	add	r4,r4,r2
   43acc:	388f883a 	add	r7,r7,r2
   43ad0:	d9000815 	stw	r4,32(sp)
   43ad4:	90a5883a 	add	r18,r18,r2
   43ad8:	d9c00715 	stw	r7,28(sp)
   43adc:	d9c00817 	ldw	r7,32(sp)
   43ae0:	01c0050e 	bge	zero,r7,43af8 <_dtoa_r+0xafc>
   43ae4:	e00b883a 	mov	r5,fp
   43ae8:	8009883a 	mov	r4,r16
   43aec:	380d883a 	mov	r6,r7
   43af0:	0046a9c0 	call	46a9c <__lshift>
   43af4:	1039883a 	mov	fp,r2
   43af8:	d8800717 	ldw	r2,28(sp)
   43afc:	0080050e 	bge	zero,r2,43b14 <_dtoa_r+0xb18>
   43b00:	a00b883a 	mov	r5,r20
   43b04:	8009883a 	mov	r4,r16
   43b08:	100d883a 	mov	r6,r2
   43b0c:	0046a9c0 	call	46a9c <__lshift>
   43b10:	1029883a 	mov	r20,r2
   43b14:	d8c00d17 	ldw	r3,52(sp)
   43b18:	1801401e 	bne	r3,zero,4401c <_dtoa_r+0x1020>
   43b1c:	d8800917 	ldw	r2,36(sp)
   43b20:	00815a0e 	bge	zero,r2,4408c <_dtoa_r+0x1090>
   43b24:	d8c00c17 	ldw	r3,48(sp)
   43b28:	18006f1e 	bne	r3,zero,43ce8 <_dtoa_r+0xcec>
   43b2c:	b823883a 	mov	r17,r23
   43b30:	dc800917 	ldw	r18,36(sp)
   43b34:	00000206 	br	43b40 <_dtoa_r+0xb44>
   43b38:	00464240 	call	46424 <__multadd>
   43b3c:	1039883a 	mov	fp,r2
   43b40:	e009883a 	mov	r4,fp
   43b44:	a00b883a 	mov	r5,r20
   43b48:	0042df40 	call	42df4 <quorem>
   43b4c:	10800c04 	addi	r2,r2,48
   43b50:	88800005 	stb	r2,0(r17)
   43b54:	8c400044 	addi	r17,r17,1
   43b58:	8dc7c83a 	sub	r3,r17,r23
   43b5c:	8009883a 	mov	r4,r16
   43b60:	e00b883a 	mov	r5,fp
   43b64:	01800284 	movi	r6,10
   43b68:	000f883a 	mov	r7,zero
   43b6c:	1cbff216 	blt	r3,r18,43b38 <__alt_data_end+0xfffdca38>
   43b70:	dd800917 	ldw	r22,36(sp)
   43b74:	1007883a 	mov	r3,r2
   43b78:	05823a0e 	bge	zero,r22,44464 <_dtoa_r+0x1468>
   43b7c:	bdad883a 	add	r22,r23,r22
   43b80:	0023883a 	mov	r17,zero
   43b84:	e00b883a 	mov	r5,fp
   43b88:	01800044 	movi	r6,1
   43b8c:	8009883a 	mov	r4,r16
   43b90:	d8c01515 	stw	r3,84(sp)
   43b94:	0046a9c0 	call	46a9c <__lshift>
   43b98:	1009883a 	mov	r4,r2
   43b9c:	a00b883a 	mov	r5,r20
   43ba0:	1039883a 	mov	fp,r2
   43ba4:	0046bf80 	call	46bf8 <__mcmp>
   43ba8:	d8c01517 	ldw	r3,84(sp)
   43bac:	0080d60e 	bge	zero,r2,43f08 <_dtoa_r+0xf0c>
   43bb0:	b13fffc3 	ldbu	r4,-1(r22)
   43bb4:	b0ffff84 	addi	r3,r22,-2
   43bb8:	01800e44 	movi	r6,57
   43bbc:	00000306 	br	43bcc <_dtoa_r+0xbd0>
   43bc0:	19000003 	ldbu	r4,0(r3)
   43bc4:	102d883a 	mov	r22,r2
   43bc8:	18ffffc4 	addi	r3,r3,-1
   43bcc:	21403fcc 	andi	r5,r4,255
   43bd0:	2940201c 	xori	r5,r5,128
   43bd4:	297fe004 	addi	r5,r5,-128
   43bd8:	b0bfffc4 	addi	r2,r22,-1
   43bdc:	2981a71e 	bne	r5,r6,4427c <_dtoa_r+0x1280>
   43be0:	b8bff71e 	bne	r23,r2,43bc0 <__alt_data_end+0xfffdcac0>
   43be4:	d8800617 	ldw	r2,24(sp)
   43be8:	10800044 	addi	r2,r2,1
   43bec:	d8800615 	stw	r2,24(sp)
   43bf0:	00800c44 	movi	r2,49
   43bf4:	b8800005 	stb	r2,0(r23)
   43bf8:	8009883a 	mov	r4,r16
   43bfc:	a00b883a 	mov	r5,r20
   43c00:	00463fc0 	call	463fc <_Bfree>
   43c04:	a83e9e26 	beq	r21,zero,43680 <__alt_data_end+0xfffdc580>
   43c08:	88000426 	beq	r17,zero,43c1c <_dtoa_r+0xc20>
   43c0c:	8d400326 	beq	r17,r21,43c1c <_dtoa_r+0xc20>
   43c10:	8009883a 	mov	r4,r16
   43c14:	880b883a 	mov	r5,r17
   43c18:	00463fc0 	call	463fc <_Bfree>
   43c1c:	8009883a 	mov	r4,r16
   43c20:	a80b883a 	mov	r5,r21
   43c24:	00463fc0 	call	463fc <_Bfree>
   43c28:	003e9506 	br	43680 <__alt_data_end+0xfffdc580>
   43c2c:	00c00044 	movi	r3,1
   43c30:	d8c00d15 	stw	r3,52(sp)
   43c34:	003d9f06 	br	432b4 <__alt_data_end+0xfffdc1b4>
   43c38:	d9000817 	ldw	r4,32(sp)
   43c3c:	d8800617 	ldw	r2,24(sp)
   43c40:	d8000b15 	stw	zero,44(sp)
   43c44:	2089c83a 	sub	r4,r4,r2
   43c48:	0087c83a 	sub	r3,zero,r2
   43c4c:	d9000815 	stw	r4,32(sp)
   43c50:	d8c00a15 	stw	r3,40(sp)
   43c54:	003da306 	br	432e4 <__alt_data_end+0xfffdc1e4>
   43c58:	0529c83a 	sub	r20,zero,r20
   43c5c:	dd000815 	stw	r20,32(sp)
   43c60:	d8000715 	stw	zero,28(sp)
   43c64:	003d9806 	br	432c8 <__alt_data_end+0xfffdc1c8>
   43c68:	d9000617 	ldw	r4,24(sp)
   43c6c:	00494400 	call	49440 <__floatsidf>
   43c70:	1009883a 	mov	r4,r2
   43c74:	180b883a 	mov	r5,r3
   43c78:	980d883a 	mov	r6,r19
   43c7c:	900f883a 	mov	r7,r18
   43c80:	00492640 	call	49264 <__eqdf2>
   43c84:	103d7a26 	beq	r2,zero,43270 <__alt_data_end+0xfffdc170>
   43c88:	d8800617 	ldw	r2,24(sp)
   43c8c:	10bfffc4 	addi	r2,r2,-1
   43c90:	d8800615 	stw	r2,24(sp)
   43c94:	003d7606 	br	43270 <__alt_data_end+0xfffdc170>
   43c98:	dcc00a17 	ldw	r19,40(sp)
   43c9c:	dc800817 	ldw	r18,32(sp)
   43ca0:	002b883a 	mov	r21,zero
   43ca4:	003f4906 	br	439cc <__alt_data_end+0xfffdc8cc>
   43ca8:	00800704 	movi	r2,28
   43cac:	d8c00817 	ldw	r3,32(sp)
   43cb0:	d9000717 	ldw	r4,28(sp)
   43cb4:	90a5883a 	add	r18,r18,r2
   43cb8:	1887883a 	add	r3,r3,r2
   43cbc:	2089883a 	add	r4,r4,r2
   43cc0:	d8c00815 	stw	r3,32(sp)
   43cc4:	d9000715 	stw	r4,28(sp)
   43cc8:	003f8406 	br	43adc <__alt_data_end+0xfffdc9dc>
   43ccc:	d9c00317 	ldw	r7,12(sp)
   43cd0:	013efb84 	movi	r4,-1042
   43cd4:	2509c83a 	sub	r4,r4,r20
   43cd8:	3908983a 	sll	r4,r7,r4
   43cdc:	003d3006 	br	431a0 <__alt_data_end+0xfffdc0a0>
   43ce0:	d8000d15 	stw	zero,52(sp)
   43ce4:	003d7306 	br	432b4 <__alt_data_end+0xfffdc1b4>
   43ce8:	0480050e 	bge	zero,r18,43d00 <_dtoa_r+0xd04>
   43cec:	a80b883a 	mov	r5,r21
   43cf0:	8009883a 	mov	r4,r16
   43cf4:	900d883a 	mov	r6,r18
   43cf8:	0046a9c0 	call	46a9c <__lshift>
   43cfc:	102b883a 	mov	r21,r2
   43d00:	8801611e 	bne	r17,zero,44288 <_dtoa_r+0x128c>
   43d04:	a827883a 	mov	r19,r21
   43d08:	d8c00317 	ldw	r3,12(sp)
   43d0c:	d9000917 	ldw	r4,36(sp)
   43d10:	b8bfffc4 	addi	r2,r23,-1
   43d14:	18c0004c 	andi	r3,r3,1
   43d18:	1105883a 	add	r2,r2,r4
   43d1c:	b825883a 	mov	r18,r23
   43d20:	d8800515 	stw	r2,20(sp)
   43d24:	a823883a 	mov	r17,r21
   43d28:	d8c00315 	stw	r3,12(sp)
   43d2c:	ddc00715 	stw	r23,28(sp)
   43d30:	e009883a 	mov	r4,fp
   43d34:	a00b883a 	mov	r5,r20
   43d38:	0042df40 	call	42df4 <quorem>
   43d3c:	e009883a 	mov	r4,fp
   43d40:	880b883a 	mov	r5,r17
   43d44:	102d883a 	mov	r22,r2
   43d48:	0046bf80 	call	46bf8 <__mcmp>
   43d4c:	980d883a 	mov	r6,r19
   43d50:	8009883a 	mov	r4,r16
   43d54:	a00b883a 	mov	r5,r20
   43d58:	102b883a 	mov	r21,r2
   43d5c:	0046c500 	call	46c50 <__mdiff>
   43d60:	100d883a 	mov	r6,r2
   43d64:	10800317 	ldw	r2,12(r2)
   43d68:	b5c00c04 	addi	r23,r22,48
   43d6c:	10008c26 	beq	r2,zero,43fa0 <_dtoa_r+0xfa4>
   43d70:	8009883a 	mov	r4,r16
   43d74:	300b883a 	mov	r5,r6
   43d78:	00463fc0 	call	463fc <_Bfree>
   43d7c:	00800044 	movi	r2,1
   43d80:	a8007116 	blt	r21,zero,43f48 <_dtoa_r+0xf4c>
   43d84:	a800041e 	bne	r21,zero,43d98 <_dtoa_r+0xd9c>
   43d88:	d9c00417 	ldw	r7,16(sp)
   43d8c:	3800021e 	bne	r7,zero,43d98 <_dtoa_r+0xd9c>
   43d90:	d8c00317 	ldw	r3,12(sp)
   43d94:	18006c26 	beq	r3,zero,43f48 <_dtoa_r+0xf4c>
   43d98:	00814c16 	blt	zero,r2,442cc <_dtoa_r+0x12d0>
   43d9c:	d8c00517 	ldw	r3,20(sp)
   43da0:	95400044 	addi	r21,r18,1
   43da4:	95c00005 	stb	r23,0(r18)
   43da8:	a82d883a 	mov	r22,r21
   43dac:	90c14d26 	beq	r18,r3,442e4 <_dtoa_r+0x12e8>
   43db0:	e00b883a 	mov	r5,fp
   43db4:	8009883a 	mov	r4,r16
   43db8:	01800284 	movi	r6,10
   43dbc:	000f883a 	mov	r7,zero
   43dc0:	00464240 	call	46424 <__multadd>
   43dc4:	1039883a 	mov	fp,r2
   43dc8:	8cc08b26 	beq	r17,r19,43ff8 <_dtoa_r+0xffc>
   43dcc:	880b883a 	mov	r5,r17
   43dd0:	01800284 	movi	r6,10
   43dd4:	000f883a 	mov	r7,zero
   43dd8:	8009883a 	mov	r4,r16
   43ddc:	00464240 	call	46424 <__multadd>
   43de0:	980b883a 	mov	r5,r19
   43de4:	8009883a 	mov	r4,r16
   43de8:	01800284 	movi	r6,10
   43dec:	000f883a 	mov	r7,zero
   43df0:	1023883a 	mov	r17,r2
   43df4:	00464240 	call	46424 <__multadd>
   43df8:	1027883a 	mov	r19,r2
   43dfc:	a825883a 	mov	r18,r21
   43e00:	003fcb06 	br	43d30 <__alt_data_end+0xfffdcc30>
   43e04:	d9c00417 	ldw	r7,16(sp)
   43e08:	00800104 	movi	r2,4
   43e0c:	3880e426 	beq	r7,r2,441a0 <_dtoa_r+0x11a4>
   43e10:	00800144 	movi	r2,5
   43e14:	38be3c1e 	bne	r7,r2,43708 <__alt_data_end+0xfffdc608>
   43e18:	00c00044 	movi	r3,1
   43e1c:	d8c00c15 	stw	r3,48(sp)
   43e20:	d9c02117 	ldw	r7,132(sp)
   43e24:	d8800617 	ldw	r2,24(sp)
   43e28:	388f883a 	add	r7,r7,r2
   43e2c:	3c800044 	addi	r18,r7,1
   43e30:	d9c00e15 	stw	r7,56(sp)
   43e34:	dc800915 	stw	r18,36(sp)
   43e38:	04bd3e16 	blt	zero,r18,43334 <__alt_data_end+0xfffdc234>
   43e3c:	80001115 	stw	zero,68(r16)
   43e40:	000b883a 	mov	r5,zero
   43e44:	003d4606 	br	43360 <__alt_data_end+0xfffdc260>
   43e48:	d8c00317 	ldw	r3,12(sp)
   43e4c:	183f0e1e 	bne	r3,zero,43a88 <__alt_data_end+0xfffdc988>
   43e50:	00c00434 	movhi	r3,16
   43e54:	18ffffc4 	addi	r3,r3,-1
   43e58:	88c6703a 	and	r3,r17,r3
   43e5c:	183f0a1e 	bne	r3,zero,43a88 <__alt_data_end+0xfffdc988>
   43e60:	8c5ffc2c 	andhi	r17,r17,32752
   43e64:	883f0826 	beq	r17,zero,43a88 <__alt_data_end+0xfffdc988>
   43e68:	d9000817 	ldw	r4,32(sp)
   43e6c:	d9c00717 	ldw	r7,28(sp)
   43e70:	1023883a 	mov	r17,r2
   43e74:	2089883a 	add	r4,r4,r2
   43e78:	388f883a 	add	r7,r7,r2
   43e7c:	d9000815 	stw	r4,32(sp)
   43e80:	d9c00715 	stw	r7,28(sp)
   43e84:	003f0106 	br	43a8c <__alt_data_end+0xfffdc98c>
   43e88:	9005883a 	mov	r2,r18
   43e8c:	003ed306 	br	439dc <__alt_data_end+0xfffdc8dc>
   43e90:	d8800917 	ldw	r2,36(sp)
   43e94:	00be3516 	blt	zero,r2,4376c <__alt_data_end+0xfffdc66c>
   43e98:	1000b61e 	bne	r2,zero,44174 <_dtoa_r+0x1178>
   43e9c:	9009883a 	mov	r4,r18
   43ea0:	980b883a 	mov	r5,r19
   43ea4:	000d883a 	mov	r6,zero
   43ea8:	01d00534 	movhi	r7,16404
   43eac:	0048f800 	call	48f80 <__muldf3>
   43eb0:	d9800317 	ldw	r6,12(sp)
   43eb4:	1009883a 	mov	r4,r2
   43eb8:	180b883a 	mov	r5,r3
   43ebc:	880f883a 	mov	r7,r17
   43ec0:	00493800 	call	49380 <__gedf2>
   43ec4:	0029883a 	mov	r20,zero
   43ec8:	002b883a 	mov	r21,zero
   43ecc:	10007e16 	blt	r2,zero,440c8 <_dtoa_r+0x10cc>
   43ed0:	d8802117 	ldw	r2,132(sp)
   43ed4:	b82d883a 	mov	r22,r23
   43ed8:	0084303a 	nor	r2,zero,r2
   43edc:	d8800615 	stw	r2,24(sp)
   43ee0:	8009883a 	mov	r4,r16
   43ee4:	a00b883a 	mov	r5,r20
   43ee8:	00463fc0 	call	463fc <_Bfree>
   43eec:	a83f4b1e 	bne	r21,zero,43c1c <__alt_data_end+0xfffdcb1c>
   43ef0:	003de306 	br	43680 <__alt_data_end+0xfffdc580>
   43ef4:	e00b883a 	mov	r5,fp
   43ef8:	8009883a 	mov	r4,r16
   43efc:	00469700 	call	46970 <__pow5mult>
   43f00:	1039883a 	mov	fp,r2
   43f04:	003ed206 	br	43a50 <__alt_data_end+0xfffdc950>
   43f08:	1000021e 	bne	r2,zero,43f14 <_dtoa_r+0xf18>
   43f0c:	18c0004c 	andi	r3,r3,1
   43f10:	183f271e 	bne	r3,zero,43bb0 <__alt_data_end+0xfffdcab0>
   43f14:	01000c04 	movi	r4,48
   43f18:	00000106 	br	43f20 <_dtoa_r+0xf24>
   43f1c:	102d883a 	mov	r22,r2
   43f20:	b0bfffc4 	addi	r2,r22,-1
   43f24:	10c00007 	ldb	r3,0(r2)
   43f28:	193ffc26 	beq	r3,r4,43f1c <__alt_data_end+0xfffdce1c>
   43f2c:	003f3206 	br	43bf8 <__alt_data_end+0xfffdcaf8>
   43f30:	d8c00f17 	ldw	r3,60(sp)
   43f34:	18015026 	beq	r3,zero,44478 <_dtoa_r+0x147c>
   43f38:	10810cc4 	addi	r2,r2,1075
   43f3c:	dcc00a17 	ldw	r19,40(sp)
   43f40:	dc800817 	ldw	r18,32(sp)
   43f44:	003e9706 	br	439a4 <__alt_data_end+0xfffdc8a4>
   43f48:	b807883a 	mov	r3,r23
   43f4c:	182b883a 	mov	r21,r3
   43f50:	ddc00717 	ldw	r23,28(sp)
   43f54:	00800e0e 	bge	zero,r2,43f90 <_dtoa_r+0xf94>
   43f58:	e00b883a 	mov	r5,fp
   43f5c:	01800044 	movi	r6,1
   43f60:	8009883a 	mov	r4,r16
   43f64:	d8c01515 	stw	r3,84(sp)
   43f68:	0046a9c0 	call	46a9c <__lshift>
   43f6c:	1009883a 	mov	r4,r2
   43f70:	a00b883a 	mov	r5,r20
   43f74:	1039883a 	mov	fp,r2
   43f78:	0046bf80 	call	46bf8 <__mcmp>
   43f7c:	d8c01517 	ldw	r3,84(sp)
   43f80:	0081880e 	bge	zero,r2,445a4 <_dtoa_r+0x15a8>
   43f84:	00800e44 	movi	r2,57
   43f88:	b0c00c44 	addi	r3,r22,49
   43f8c:	a8816326 	beq	r21,r2,4451c <_dtoa_r+0x1520>
   43f90:	90c00005 	stb	r3,0(r18)
   43f94:	95800044 	addi	r22,r18,1
   43f98:	982b883a 	mov	r21,r19
   43f9c:	003f1606 	br	43bf8 <__alt_data_end+0xfffdcaf8>
   43fa0:	300b883a 	mov	r5,r6
   43fa4:	e009883a 	mov	r4,fp
   43fa8:	d9801515 	stw	r6,84(sp)
   43fac:	0046bf80 	call	46bf8 <__mcmp>
   43fb0:	d9801517 	ldw	r6,84(sp)
   43fb4:	8009883a 	mov	r4,r16
   43fb8:	d8801515 	stw	r2,84(sp)
   43fbc:	300b883a 	mov	r5,r6
   43fc0:	00463fc0 	call	463fc <_Bfree>
   43fc4:	d8801517 	ldw	r2,84(sp)
   43fc8:	103f6d1e 	bne	r2,zero,43d80 <__alt_data_end+0xfffdcc80>
   43fcc:	d9c00417 	ldw	r7,16(sp)
   43fd0:	383f6b1e 	bne	r7,zero,43d80 <__alt_data_end+0xfffdcc80>
   43fd4:	d8c00317 	ldw	r3,12(sp)
   43fd8:	183f691e 	bne	r3,zero,43d80 <__alt_data_end+0xfffdcc80>
   43fdc:	b807883a 	mov	r3,r23
   43fe0:	00800e44 	movi	r2,57
   43fe4:	ddc00717 	ldw	r23,28(sp)
   43fe8:	18814c26 	beq	r3,r2,4451c <_dtoa_r+0x1520>
   43fec:	057fe80e 	bge	zero,r21,43f90 <__alt_data_end+0xfffdce90>
   43ff0:	b0c00c44 	addi	r3,r22,49
   43ff4:	003fe606 	br	43f90 <__alt_data_end+0xfffdce90>
   43ff8:	880b883a 	mov	r5,r17
   43ffc:	8009883a 	mov	r4,r16
   44000:	01800284 	movi	r6,10
   44004:	000f883a 	mov	r7,zero
   44008:	00464240 	call	46424 <__multadd>
   4400c:	1023883a 	mov	r17,r2
   44010:	1027883a 	mov	r19,r2
   44014:	a825883a 	mov	r18,r21
   44018:	003f4506 	br	43d30 <__alt_data_end+0xfffdcc30>
   4401c:	e009883a 	mov	r4,fp
   44020:	a00b883a 	mov	r5,r20
   44024:	0046bf80 	call	46bf8 <__mcmp>
   44028:	103ebc0e 	bge	r2,zero,43b1c <__alt_data_end+0xfffdca1c>
   4402c:	e00b883a 	mov	r5,fp
   44030:	8009883a 	mov	r4,r16
   44034:	01800284 	movi	r6,10
   44038:	000f883a 	mov	r7,zero
   4403c:	00464240 	call	46424 <__multadd>
   44040:	1039883a 	mov	fp,r2
   44044:	d8800617 	ldw	r2,24(sp)
   44048:	d8c00c17 	ldw	r3,48(sp)
   4404c:	10bfffc4 	addi	r2,r2,-1
   44050:	d8800615 	stw	r2,24(sp)
   44054:	1801571e 	bne	r3,zero,445b4 <_dtoa_r+0x15b8>
   44058:	d9c00e17 	ldw	r7,56(sp)
   4405c:	d9c00915 	stw	r7,36(sp)
   44060:	003eae06 	br	43b1c <__alt_data_end+0xfffdca1c>
   44064:	a0800417 	ldw	r2,16(r20)
   44068:	10800104 	addi	r2,r2,4
   4406c:	1085883a 	add	r2,r2,r2
   44070:	1085883a 	add	r2,r2,r2
   44074:	a085883a 	add	r2,r20,r2
   44078:	11000017 	ldw	r4,0(r2)
   4407c:	004663c0 	call	4663c <__hi0bits>
   44080:	00c00804 	movi	r3,32
   44084:	1885c83a 	sub	r2,r3,r2
   44088:	003e8306 	br	43a98 <__alt_data_end+0xfffdc998>
   4408c:	d9c00417 	ldw	r7,16(sp)
   44090:	00800084 	movi	r2,2
   44094:	11fea30e 	bge	r2,r7,43b24 <__alt_data_end+0xfffdca24>
   44098:	d8800917 	ldw	r2,36(sp)
   4409c:	103f8c1e 	bne	r2,zero,43ed0 <__alt_data_end+0xfffdcdd0>
   440a0:	a00b883a 	mov	r5,r20
   440a4:	8009883a 	mov	r4,r16
   440a8:	01800144 	movi	r6,5
   440ac:	000f883a 	mov	r7,zero
   440b0:	00464240 	call	46424 <__multadd>
   440b4:	e009883a 	mov	r4,fp
   440b8:	100b883a 	mov	r5,r2
   440bc:	1029883a 	mov	r20,r2
   440c0:	0046bf80 	call	46bf8 <__mcmp>
   440c4:	00bf820e 	bge	zero,r2,43ed0 <__alt_data_end+0xfffdcdd0>
   440c8:	00800c44 	movi	r2,49
   440cc:	b8800005 	stb	r2,0(r23)
   440d0:	d8800617 	ldw	r2,24(sp)
   440d4:	bd800044 	addi	r22,r23,1
   440d8:	10800044 	addi	r2,r2,1
   440dc:	d8800615 	stw	r2,24(sp)
   440e0:	003f7f06 	br	43ee0 <__alt_data_end+0xfffdcde0>
   440e4:	dc000417 	ldw	r16,16(sp)
   440e8:	003d6506 	br	43680 <__alt_data_end+0xfffdc580>
   440ec:	9009883a 	mov	r4,r18
   440f0:	00494400 	call	49440 <__floatsidf>
   440f4:	1009883a 	mov	r4,r2
   440f8:	180b883a 	mov	r5,r3
   440fc:	980d883a 	mov	r6,r19
   44100:	a00f883a 	mov	r7,r20
   44104:	0048f800 	call	48f80 <__muldf3>
   44108:	1009883a 	mov	r4,r2
   4410c:	180b883a 	mov	r5,r3
   44110:	000d883a 	mov	r6,zero
   44114:	01d00734 	movhi	r7,16412
   44118:	0048ecc0 	call	48ecc <__adddf3>
   4411c:	057f3034 	movhi	r21,64704
   44120:	1025883a 	mov	r18,r2
   44124:	1d6b883a 	add	r21,r3,r21
   44128:	9809883a 	mov	r4,r19
   4412c:	a00b883a 	mov	r5,r20
   44130:	000d883a 	mov	r6,zero
   44134:	01d00534 	movhi	r7,16404
   44138:	0048f200 	call	48f20 <__subdf3>
   4413c:	1009883a 	mov	r4,r2
   44140:	180b883a 	mov	r5,r3
   44144:	900d883a 	mov	r6,r18
   44148:	a80f883a 	mov	r7,r21
   4414c:	1027883a 	mov	r19,r2
   44150:	1829883a 	mov	r20,r3
   44154:	004931c0 	call	4931c <__gtdf2>
   44158:	00806616 	blt	zero,r2,442f4 <_dtoa_r+0x12f8>
   4415c:	a9e0003c 	xorhi	r7,r21,32768
   44160:	9809883a 	mov	r4,r19
   44164:	a00b883a 	mov	r5,r20
   44168:	900d883a 	mov	r6,r18
   4416c:	00493e40 	call	493e4 <__ltdf2>
   44170:	103d710e 	bge	r2,zero,43738 <__alt_data_end+0xfffdc638>
   44174:	0029883a 	mov	r20,zero
   44178:	002b883a 	mov	r21,zero
   4417c:	003f5406 	br	43ed0 <__alt_data_end+0xfffdcdd0>
   44180:	d9800a17 	ldw	r6,40(sp)
   44184:	e00b883a 	mov	r5,fp
   44188:	8009883a 	mov	r4,r16
   4418c:	00469700 	call	46970 <__pow5mult>
   44190:	1039883a 	mov	fp,r2
   44194:	003e2e06 	br	43a50 <__alt_data_end+0xfffdc950>
   44198:	d8000c15 	stw	zero,48(sp)
   4419c:	003f2006 	br	43e20 <__alt_data_end+0xfffdcd20>
   441a0:	00800044 	movi	r2,1
   441a4:	d8800c15 	stw	r2,48(sp)
   441a8:	003c5d06 	br	43320 <__alt_data_end+0xfffdc220>
   441ac:	d8c00a17 	ldw	r3,40(sp)
   441b0:	d9000b17 	ldw	r4,44(sp)
   441b4:	dcc00a15 	stw	r19,40(sp)
   441b8:	98c5c83a 	sub	r2,r19,r3
   441bc:	2089883a 	add	r4,r4,r2
   441c0:	d9000b15 	stw	r4,44(sp)
   441c4:	0027883a 	mov	r19,zero
   441c8:	003df206 	br	43994 <__alt_data_end+0xfffdc894>
   441cc:	d9000317 	ldw	r4,12(sp)
   441d0:	8829883a 	mov	r20,r17
   441d4:	04800084 	movi	r18,2
   441d8:	d9001015 	stw	r4,64(sp)
   441dc:	003c8106 	br	433e4 <__alt_data_end+0xfffdc2e4>
   441e0:	04800044 	movi	r18,1
   441e4:	dc800e15 	stw	r18,56(sp)
   441e8:	dc800915 	stw	r18,36(sp)
   441ec:	dc802115 	stw	r18,132(sp)
   441f0:	003f1206 	br	43e3c <__alt_data_end+0xfffdcd3c>
   441f4:	d8800617 	ldw	r2,24(sp)
   441f8:	00abc83a 	sub	r21,zero,r2
   441fc:	a800a426 	beq	r21,zero,44490 <_dtoa_r+0x1494>
   44200:	a88003cc 	andi	r2,r21,15
   44204:	100490fa 	slli	r2,r2,3
   44208:	00c00174 	movhi	r3,5
   4420c:	18f10504 	addi	r3,r3,-15340
   44210:	d9000317 	ldw	r4,12(sp)
   44214:	1885883a 	add	r2,r3,r2
   44218:	11800017 	ldw	r6,0(r2)
   4421c:	11c00117 	ldw	r7,4(r2)
   44220:	a82bd13a 	srai	r21,r21,4
   44224:	880b883a 	mov	r5,r17
   44228:	0048f800 	call	48f80 <__muldf3>
   4422c:	1027883a 	mov	r19,r2
   44230:	1829883a 	mov	r20,r3
   44234:	a800e826 	beq	r21,zero,445d8 <_dtoa_r+0x15dc>
   44238:	05800174 	movhi	r22,5
   4423c:	b5b0fb04 	addi	r22,r22,-15380
   44240:	04800084 	movi	r18,2
   44244:	a980004c 	andi	r6,r21,1
   44248:	1009883a 	mov	r4,r2
   4424c:	a82bd07a 	srai	r21,r21,1
   44250:	180b883a 	mov	r5,r3
   44254:	30000426 	beq	r6,zero,44268 <_dtoa_r+0x126c>
   44258:	b1800017 	ldw	r6,0(r22)
   4425c:	b1c00117 	ldw	r7,4(r22)
   44260:	94800044 	addi	r18,r18,1
   44264:	0048f800 	call	48f80 <__muldf3>
   44268:	b5800204 	addi	r22,r22,8
   4426c:	a83ff51e 	bne	r21,zero,44244 <__alt_data_end+0xfffdd144>
   44270:	1027883a 	mov	r19,r2
   44274:	1829883a 	mov	r20,r3
   44278:	003c7306 	br	43448 <__alt_data_end+0xfffdc348>
   4427c:	21000044 	addi	r4,r4,1
   44280:	11000005 	stb	r4,0(r2)
   44284:	003e5c06 	br	43bf8 <__alt_data_end+0xfffdcaf8>
   44288:	a9400117 	ldw	r5,4(r21)
   4428c:	8009883a 	mov	r4,r16
   44290:	00463540 	call	46354 <_Balloc>
   44294:	a9800417 	ldw	r6,16(r21)
   44298:	11000304 	addi	r4,r2,12
   4429c:	a9400304 	addi	r5,r21,12
   442a0:	31800084 	addi	r6,r6,2
   442a4:	318d883a 	add	r6,r6,r6
   442a8:	318d883a 	add	r6,r6,r6
   442ac:	1023883a 	mov	r17,r2
   442b0:	00460580 	call	46058 <memcpy>
   442b4:	8009883a 	mov	r4,r16
   442b8:	880b883a 	mov	r5,r17
   442bc:	01800044 	movi	r6,1
   442c0:	0046a9c0 	call	46a9c <__lshift>
   442c4:	1027883a 	mov	r19,r2
   442c8:	003e8f06 	br	43d08 <__alt_data_end+0xfffdcc08>
   442cc:	b807883a 	mov	r3,r23
   442d0:	00800e44 	movi	r2,57
   442d4:	ddc00717 	ldw	r23,28(sp)
   442d8:	18809026 	beq	r3,r2,4451c <_dtoa_r+0x1520>
   442dc:	18c00044 	addi	r3,r3,1
   442e0:	003f2b06 	br	43f90 <__alt_data_end+0xfffdce90>
   442e4:	b807883a 	mov	r3,r23
   442e8:	982b883a 	mov	r21,r19
   442ec:	ddc00717 	ldw	r23,28(sp)
   442f0:	003e2406 	br	43b84 <__alt_data_end+0xfffdca84>
   442f4:	0029883a 	mov	r20,zero
   442f8:	002b883a 	mov	r21,zero
   442fc:	003f7206 	br	440c8 <__alt_data_end+0xfffdcfc8>
   44300:	593fffc4 	addi	r4,r11,-1
   44304:	200490fa 	slli	r2,r4,3
   44308:	00c00174 	movhi	r3,5
   4430c:	18f10504 	addi	r3,r3,-15340
   44310:	d9001015 	stw	r4,64(sp)
   44314:	1885883a 	add	r2,r3,r2
   44318:	11000017 	ldw	r4,0(r2)
   4431c:	11400117 	ldw	r5,4(r2)
   44320:	900d883a 	mov	r6,r18
   44324:	a80f883a 	mov	r7,r21
   44328:	dac01615 	stw	r11,88(sp)
   4432c:	0048f800 	call	48f80 <__muldf3>
   44330:	a00b883a 	mov	r5,r20
   44334:	9809883a 	mov	r4,r19
   44338:	d8c01215 	stw	r3,72(sp)
   4433c:	d8801115 	stw	r2,68(sp)
   44340:	00495140 	call	49514 <__fixdfsi>
   44344:	1009883a 	mov	r4,r2
   44348:	1025883a 	mov	r18,r2
   4434c:	00494400 	call	49440 <__floatsidf>
   44350:	9809883a 	mov	r4,r19
   44354:	a00b883a 	mov	r5,r20
   44358:	100d883a 	mov	r6,r2
   4435c:	180f883a 	mov	r7,r3
   44360:	94800c04 	addi	r18,r18,48
   44364:	0048f200 	call	48f20 <__subdf3>
   44368:	bc800005 	stb	r18,0(r23)
   4436c:	dac01617 	ldw	r11,88(sp)
   44370:	102b883a 	mov	r21,r2
   44374:	00800044 	movi	r2,1
   44378:	bd800044 	addi	r22,r23,1
   4437c:	1815883a 	mov	r10,r3
   44380:	58802226 	beq	r11,r2,4440c <_dtoa_r+0x1410>
   44384:	bad7883a 	add	r11,r23,r11
   44388:	dc001415 	stw	r16,80(sp)
   4438c:	a805883a 	mov	r2,r21
   44390:	b027883a 	mov	r19,r22
   44394:	5821883a 	mov	r16,r11
   44398:	882b883a 	mov	r21,r17
   4439c:	000d883a 	mov	r6,zero
   443a0:	01d00934 	movhi	r7,16420
   443a4:	1009883a 	mov	r4,r2
   443a8:	180b883a 	mov	r5,r3
   443ac:	0048f800 	call	48f80 <__muldf3>
   443b0:	180b883a 	mov	r5,r3
   443b4:	1009883a 	mov	r4,r2
   443b8:	1829883a 	mov	r20,r3
   443bc:	1023883a 	mov	r17,r2
   443c0:	00495140 	call	49514 <__fixdfsi>
   443c4:	1009883a 	mov	r4,r2
   443c8:	1025883a 	mov	r18,r2
   443cc:	00494400 	call	49440 <__floatsidf>
   443d0:	8809883a 	mov	r4,r17
   443d4:	a00b883a 	mov	r5,r20
   443d8:	100d883a 	mov	r6,r2
   443dc:	180f883a 	mov	r7,r3
   443e0:	94800c04 	addi	r18,r18,48
   443e4:	0048f200 	call	48f20 <__subdf3>
   443e8:	9cc00044 	addi	r19,r19,1
   443ec:	9cbfffc5 	stb	r18,-1(r19)
   443f0:	9c3fea1e 	bne	r19,r16,4439c <__alt_data_end+0xfffdd29c>
   443f4:	1815883a 	mov	r10,r3
   443f8:	d8c01017 	ldw	r3,64(sp)
   443fc:	dc001417 	ldw	r16,80(sp)
   44400:	a823883a 	mov	r17,r21
   44404:	b0ed883a 	add	r22,r22,r3
   44408:	102b883a 	mov	r21,r2
   4440c:	d9001117 	ldw	r4,68(sp)
   44410:	d9401217 	ldw	r5,72(sp)
   44414:	000d883a 	mov	r6,zero
   44418:	01cff834 	movhi	r7,16352
   4441c:	da801515 	stw	r10,84(sp)
   44420:	0048ecc0 	call	48ecc <__adddf3>
   44424:	da801517 	ldw	r10,84(sp)
   44428:	1009883a 	mov	r4,r2
   4442c:	180b883a 	mov	r5,r3
   44430:	500f883a 	mov	r7,r10
   44434:	a80d883a 	mov	r6,r21
   44438:	00493e40 	call	493e4 <__ltdf2>
   4443c:	da801517 	ldw	r10,84(sp)
   44440:	10003b0e 	bge	r2,zero,44530 <_dtoa_r+0x1534>
   44444:	d9c01317 	ldw	r7,76(sp)
   44448:	b53fffc3 	ldbu	r20,-1(r22)
   4444c:	d9c00615 	stw	r7,24(sp)
   44450:	003d3106 	br	43918 <__alt_data_end+0xfffdc818>
   44454:	d8800817 	ldw	r2,32(sp)
   44458:	11e5c83a 	sub	r18,r2,r7
   4445c:	0005883a 	mov	r2,zero
   44460:	003d5006 	br	439a4 <__alt_data_end+0xfffdc8a4>
   44464:	05800044 	movi	r22,1
   44468:	003dc406 	br	43b7c <__alt_data_end+0xfffdca7c>
   4446c:	a5000044 	addi	r20,r20,1
   44470:	15000005 	stb	r20,0(r2)
   44474:	003c8206 	br	43680 <__alt_data_end+0xfffdc580>
   44478:	d8800217 	ldw	r2,8(sp)
   4447c:	00c00d84 	movi	r3,54
   44480:	dcc00a17 	ldw	r19,40(sp)
   44484:	1885c83a 	sub	r2,r3,r2
   44488:	dc800817 	ldw	r18,32(sp)
   4448c:	003d4506 	br	439a4 <__alt_data_end+0xfffdc8a4>
   44490:	dcc00317 	ldw	r19,12(sp)
   44494:	8829883a 	mov	r20,r17
   44498:	04800084 	movi	r18,2
   4449c:	003bea06 	br	43448 <__alt_data_end+0xfffdc348>
   444a0:	d9000917 	ldw	r4,36(sp)
   444a4:	203f1126 	beq	r4,zero,440ec <__alt_data_end+0xfffdcfec>
   444a8:	d9c00e17 	ldw	r7,56(sp)
   444ac:	01fca20e 	bge	zero,r7,43738 <__alt_data_end+0xfffdc638>
   444b0:	a00b883a 	mov	r5,r20
   444b4:	9809883a 	mov	r4,r19
   444b8:	000d883a 	mov	r6,zero
   444bc:	01d00934 	movhi	r7,16420
   444c0:	0048f800 	call	48f80 <__muldf3>
   444c4:	91000044 	addi	r4,r18,1
   444c8:	1027883a 	mov	r19,r2
   444cc:	1829883a 	mov	r20,r3
   444d0:	00494400 	call	49440 <__floatsidf>
   444d4:	9809883a 	mov	r4,r19
   444d8:	a00b883a 	mov	r5,r20
   444dc:	100d883a 	mov	r6,r2
   444e0:	180f883a 	mov	r7,r3
   444e4:	0048f800 	call	48f80 <__muldf3>
   444e8:	1009883a 	mov	r4,r2
   444ec:	180b883a 	mov	r5,r3
   444f0:	000d883a 	mov	r6,zero
   444f4:	01d00734 	movhi	r7,16412
   444f8:	0048ecc0 	call	48ecc <__adddf3>
   444fc:	1025883a 	mov	r18,r2
   44500:	d8800617 	ldw	r2,24(sp)
   44504:	057f3034 	movhi	r21,64704
   44508:	1d6b883a 	add	r21,r3,r21
   4450c:	10bfffc4 	addi	r2,r2,-1
   44510:	d8801315 	stw	r2,76(sp)
   44514:	dac00e17 	ldw	r11,56(sp)
   44518:	003be706 	br	434b8 <__alt_data_end+0xfffdc3b8>
   4451c:	01000e44 	movi	r4,57
   44520:	91000005 	stb	r4,0(r18)
   44524:	95800044 	addi	r22,r18,1
   44528:	982b883a 	mov	r21,r19
   4452c:	003da106 	br	43bb4 <__alt_data_end+0xfffdcab4>
   44530:	d9801117 	ldw	r6,68(sp)
   44534:	d9c01217 	ldw	r7,72(sp)
   44538:	0009883a 	mov	r4,zero
   4453c:	014ff834 	movhi	r5,16352
   44540:	da801515 	stw	r10,84(sp)
   44544:	0048f200 	call	48f20 <__subdf3>
   44548:	da801517 	ldw	r10,84(sp)
   4454c:	1009883a 	mov	r4,r2
   44550:	180b883a 	mov	r5,r3
   44554:	a80d883a 	mov	r6,r21
   44558:	500f883a 	mov	r7,r10
   4455c:	004931c0 	call	4931c <__gtdf2>
   44560:	00bc750e 	bge	zero,r2,43738 <__alt_data_end+0xfffdc638>
   44564:	01000c04 	movi	r4,48
   44568:	00000106 	br	44570 <_dtoa_r+0x1574>
   4456c:	102d883a 	mov	r22,r2
   44570:	b0bfffc4 	addi	r2,r22,-1
   44574:	10c00007 	ldb	r3,0(r2)
   44578:	193ffc26 	beq	r3,r4,4456c <__alt_data_end+0xfffdd46c>
   4457c:	d8801317 	ldw	r2,76(sp)
   44580:	d8800615 	stw	r2,24(sp)
   44584:	003c3e06 	br	43680 <__alt_data_end+0xfffdc580>
   44588:	d9001317 	ldw	r4,76(sp)
   4458c:	df001117 	ldw	fp,68(sp)
   44590:	d9000615 	stw	r4,24(sp)
   44594:	003ce006 	br	43918 <__alt_data_end+0xfffdc818>
   44598:	df001117 	ldw	fp,68(sp)
   4459c:	dc401217 	ldw	r17,72(sp)
   445a0:	003c6506 	br	43738 <__alt_data_end+0xfffdc638>
   445a4:	103e7a1e 	bne	r2,zero,43f90 <__alt_data_end+0xfffdce90>
   445a8:	1880004c 	andi	r2,r3,1
   445ac:	103e7826 	beq	r2,zero,43f90 <__alt_data_end+0xfffdce90>
   445b0:	003e7406 	br	43f84 <__alt_data_end+0xfffdce84>
   445b4:	8009883a 	mov	r4,r16
   445b8:	a80b883a 	mov	r5,r21
   445bc:	01800284 	movi	r6,10
   445c0:	000f883a 	mov	r7,zero
   445c4:	00464240 	call	46424 <__multadd>
   445c8:	d9000e17 	ldw	r4,56(sp)
   445cc:	102b883a 	mov	r21,r2
   445d0:	d9000915 	stw	r4,36(sp)
   445d4:	003d5106 	br	43b1c <__alt_data_end+0xfffdca1c>
   445d8:	04800084 	movi	r18,2
   445dc:	003b9a06 	br	43448 <__alt_data_end+0xfffdc348>
   445e0:	d8c01317 	ldw	r3,76(sp)
   445e4:	d8c00615 	stw	r3,24(sp)
   445e8:	003ccb06 	br	43918 <__alt_data_end+0xfffdc818>
   445ec:	d8c01317 	ldw	r3,76(sp)
   445f0:	d8c00615 	stw	r3,24(sp)
   445f4:	003c2206 	br	43680 <__alt_data_end+0xfffdc580>
   445f8:	20fd3826 	beq	r4,r3,43adc <__alt_data_end+0xfffdc9dc>
   445fc:	00c00f04 	movi	r3,60
   44600:	1885c83a 	sub	r2,r3,r2
   44604:	003da906 	br	43cac <__alt_data_end+0xfffdcbac>
   44608:	000b883a 	mov	r5,zero
   4460c:	003b5406 	br	43360 <__alt_data_end+0xfffdc260>
   44610:	04c00044 	movi	r19,1
   44614:	003b3b06 	br	43304 <__alt_data_end+0xfffdc204>

00044618 <_fflush_r>:
   44618:	defffb04 	addi	sp,sp,-20
   4461c:	dcc00315 	stw	r19,12(sp)
   44620:	dc400115 	stw	r17,4(sp)
   44624:	dfc00415 	stw	ra,16(sp)
   44628:	dc800215 	stw	r18,8(sp)
   4462c:	dc000015 	stw	r16,0(sp)
   44630:	2027883a 	mov	r19,r4
   44634:	2823883a 	mov	r17,r5
   44638:	20000226 	beq	r4,zero,44644 <_fflush_r+0x2c>
   4463c:	20800e17 	ldw	r2,56(r4)
   44640:	10005726 	beq	r2,zero,447a0 <_fflush_r+0x188>
   44644:	8880030b 	ldhu	r2,12(r17)
   44648:	10c0020c 	andi	r3,r2,8
   4464c:	18ffffcc 	andi	r3,r3,65535
   44650:	18e0001c 	xori	r3,r3,32768
   44654:	18e00004 	addi	r3,r3,-32768
   44658:	1800311e 	bne	r3,zero,44720 <_fflush_r+0x108>
   4465c:	89000117 	ldw	r4,4(r17)
   44660:	10c20014 	ori	r3,r2,2048
   44664:	88c0030d 	sth	r3,12(r17)
   44668:	180b883a 	mov	r5,r3
   4466c:	0100520e 	bge	zero,r4,447b8 <_fflush_r+0x1a0>
   44670:	88c00a17 	ldw	r3,40(r17)
   44674:	18002226 	beq	r3,zero,44700 <_fflush_r+0xe8>
   44678:	1084000c 	andi	r2,r2,4096
   4467c:	10bfffcc 	andi	r2,r2,65535
   44680:	10a0001c 	xori	r2,r2,32768
   44684:	10a00004 	addi	r2,r2,-32768
   44688:	10004e26 	beq	r2,zero,447c4 <_fflush_r+0x1ac>
   4468c:	8c001417 	ldw	r16,80(r17)
   44690:	2940010c 	andi	r5,r5,4
   44694:	297fffcc 	andi	r5,r5,65535
   44698:	2960001c 	xori	r5,r5,32768
   4469c:	29600004 	addi	r5,r5,-32768
   446a0:	28000626 	beq	r5,zero,446bc <_fflush_r+0xa4>
   446a4:	89000117 	ldw	r4,4(r17)
   446a8:	88800c17 	ldw	r2,48(r17)
   446ac:	8121c83a 	sub	r16,r16,r4
   446b0:	10000226 	beq	r2,zero,446bc <_fflush_r+0xa4>
   446b4:	88800f17 	ldw	r2,60(r17)
   446b8:	80a1c83a 	sub	r16,r16,r2
   446bc:	89400717 	ldw	r5,28(r17)
   446c0:	9809883a 	mov	r4,r19
   446c4:	800d883a 	mov	r6,r16
   446c8:	000f883a 	mov	r7,zero
   446cc:	183ee83a 	callr	r3
   446d0:	8080281e 	bne	r16,r2,44774 <_fflush_r+0x15c>
   446d4:	8880030b 	ldhu	r2,12(r17)
   446d8:	88c00417 	ldw	r3,16(r17)
   446dc:	88000115 	stw	zero,4(r17)
   446e0:	113dffcc 	andi	r4,r2,63487
   446e4:	1084000c 	andi	r2,r2,4096
   446e8:	10bfffcc 	andi	r2,r2,65535
   446ec:	10a0001c 	xori	r2,r2,32768
   446f0:	8900030d 	sth	r4,12(r17)
   446f4:	88c00015 	stw	r3,0(r17)
   446f8:	10a00004 	addi	r2,r2,-32768
   446fc:	10002c1e 	bne	r2,zero,447b0 <_fflush_r+0x198>
   44700:	0005883a 	mov	r2,zero
   44704:	dfc00417 	ldw	ra,16(sp)
   44708:	dcc00317 	ldw	r19,12(sp)
   4470c:	dc800217 	ldw	r18,8(sp)
   44710:	dc400117 	ldw	r17,4(sp)
   44714:	dc000017 	ldw	r16,0(sp)
   44718:	dec00504 	addi	sp,sp,20
   4471c:	f800283a 	ret
   44720:	8c800417 	ldw	r18,16(r17)
   44724:	903ff626 	beq	r18,zero,44700 <__alt_data_end+0xfffdd600>
   44728:	8c000017 	ldw	r16,0(r17)
   4472c:	108000cc 	andi	r2,r2,3
   44730:	8c800015 	stw	r18,0(r17)
   44734:	84a1c83a 	sub	r16,r16,r18
   44738:	10001b1e 	bne	r2,zero,447a8 <_fflush_r+0x190>
   4473c:	88800517 	ldw	r2,20(r17)
   44740:	88800215 	stw	r2,8(r17)
   44744:	04000316 	blt	zero,r16,44754 <_fflush_r+0x13c>
   44748:	003fed06 	br	44700 <__alt_data_end+0xfffdd600>
   4474c:	90a5883a 	add	r18,r18,r2
   44750:	043feb0e 	bge	zero,r16,44700 <__alt_data_end+0xfffdd600>
   44754:	88800917 	ldw	r2,36(r17)
   44758:	89400717 	ldw	r5,28(r17)
   4475c:	800f883a 	mov	r7,r16
   44760:	900d883a 	mov	r6,r18
   44764:	9809883a 	mov	r4,r19
   44768:	103ee83a 	callr	r2
   4476c:	80a1c83a 	sub	r16,r16,r2
   44770:	00bff616 	blt	zero,r2,4474c <__alt_data_end+0xfffdd64c>
   44774:	88c0030b 	ldhu	r3,12(r17)
   44778:	00bfffc4 	movi	r2,-1
   4477c:	18c01014 	ori	r3,r3,64
   44780:	88c0030d 	sth	r3,12(r17)
   44784:	dfc00417 	ldw	ra,16(sp)
   44788:	dcc00317 	ldw	r19,12(sp)
   4478c:	dc800217 	ldw	r18,8(sp)
   44790:	dc400117 	ldw	r17,4(sp)
   44794:	dc000017 	ldw	r16,0(sp)
   44798:	dec00504 	addi	sp,sp,20
   4479c:	f800283a 	ret
   447a0:	00448c00 	call	448c0 <__sinit>
   447a4:	003fa706 	br	44644 <__alt_data_end+0xfffdd544>
   447a8:	0005883a 	mov	r2,zero
   447ac:	003fe406 	br	44740 <__alt_data_end+0xfffdd640>
   447b0:	8c001415 	stw	r16,80(r17)
   447b4:	003fd206 	br	44700 <__alt_data_end+0xfffdd600>
   447b8:	88c00f17 	ldw	r3,60(r17)
   447bc:	00ffac16 	blt	zero,r3,44670 <__alt_data_end+0xfffdd570>
   447c0:	003fcf06 	br	44700 <__alt_data_end+0xfffdd600>
   447c4:	89400717 	ldw	r5,28(r17)
   447c8:	9809883a 	mov	r4,r19
   447cc:	000d883a 	mov	r6,zero
   447d0:	01c00044 	movi	r7,1
   447d4:	183ee83a 	callr	r3
   447d8:	1021883a 	mov	r16,r2
   447dc:	00bfffc4 	movi	r2,-1
   447e0:	80800326 	beq	r16,r2,447f0 <_fflush_r+0x1d8>
   447e4:	8940030b 	ldhu	r5,12(r17)
   447e8:	88c00a17 	ldw	r3,40(r17)
   447ec:	003fa806 	br	44690 <__alt_data_end+0xfffdd590>
   447f0:	98c00017 	ldw	r3,0(r19)
   447f4:	00800744 	movi	r2,29
   447f8:	18bfde1e 	bne	r3,r2,44774 <__alt_data_end+0xfffdd674>
   447fc:	003fc006 	br	44700 <__alt_data_end+0xfffdd600>

00044800 <fflush>:
   44800:	200b883a 	mov	r5,r4
   44804:	20000426 	beq	r4,zero,44818 <fflush+0x18>
   44808:	00800174 	movhi	r2,5
   4480c:	10b7cd04 	addi	r2,r2,-8396
   44810:	11000017 	ldw	r4,0(r2)
   44814:	00446181 	jmpi	44618 <_fflush_r>
   44818:	00800174 	movhi	r2,5
   4481c:	10b7cc04 	addi	r2,r2,-8400
   44820:	11000017 	ldw	r4,0(r2)
   44824:	01400134 	movhi	r5,4
   44828:	29518604 	addi	r5,r5,17944
   4482c:	00454a01 	jmpi	454a0 <_fwalk_reent>

00044830 <__fp_lock>:
   44830:	0005883a 	mov	r2,zero
   44834:	f800283a 	ret

00044838 <__fp_unlock>:
   44838:	0005883a 	mov	r2,zero
   4483c:	f800283a 	ret

00044840 <_cleanup_r>:
   44840:	01400134 	movhi	r5,4
   44844:	295f9b04 	addi	r5,r5,32364
   44848:	00453f81 	jmpi	453f8 <_fwalk>

0004484c <__sfmoreglue>:
   4484c:	defffc04 	addi	sp,sp,-16
   44850:	dc400115 	stw	r17,4(sp)
   44854:	2c401724 	muli	r17,r5,92
   44858:	dc800215 	stw	r18,8(sp)
   4485c:	2825883a 	mov	r18,r5
   44860:	89400304 	addi	r5,r17,12
   44864:	dc000015 	stw	r16,0(sp)
   44868:	dfc00315 	stw	ra,12(sp)
   4486c:	00457dc0 	call	457dc <_malloc_r>
   44870:	1021883a 	mov	r16,r2
   44874:	10000726 	beq	r2,zero,44894 <__sfmoreglue+0x48>
   44878:	11000304 	addi	r4,r2,12
   4487c:	10000015 	stw	zero,0(r2)
   44880:	14800115 	stw	r18,4(r2)
   44884:	11000215 	stw	r4,8(r2)
   44888:	000b883a 	mov	r5,zero
   4488c:	880d883a 	mov	r6,r17
   44890:	00462780 	call	46278 <memset>
   44894:	8005883a 	mov	r2,r16
   44898:	dfc00317 	ldw	ra,12(sp)
   4489c:	dc800217 	ldw	r18,8(sp)
   448a0:	dc400117 	ldw	r17,4(sp)
   448a4:	dc000017 	ldw	r16,0(sp)
   448a8:	dec00404 	addi	sp,sp,16
   448ac:	f800283a 	ret

000448b0 <_cleanup>:
   448b0:	00800174 	movhi	r2,5
   448b4:	10b7cc04 	addi	r2,r2,-8400
   448b8:	11000017 	ldw	r4,0(r2)
   448bc:	00448401 	jmpi	44840 <_cleanup_r>

000448c0 <__sinit>:
   448c0:	20800e17 	ldw	r2,56(r4)
   448c4:	1000401e 	bne	r2,zero,449c8 <__sinit+0x108>
   448c8:	21400117 	ldw	r5,4(r4)
   448cc:	01800134 	movhi	r6,4
   448d0:	31921004 	addi	r6,r6,18496
   448d4:	20c00217 	ldw	r3,8(r4)
   448d8:	21800f15 	stw	r6,60(r4)
   448dc:	2080bb04 	addi	r2,r4,748
   448e0:	02400044 	movi	r9,1
   448e4:	018000c4 	movi	r6,3
   448e8:	2180b915 	stw	r6,740(r4)
   448ec:	2080ba15 	stw	r2,744(r4)
   448f0:	22400e15 	stw	r9,56(r4)
   448f4:	20800317 	ldw	r2,12(r4)
   448f8:	2000b815 	stw	zero,736(r4)
   448fc:	02000134 	movhi	r8,4
   44900:	421e7004 	addi	r8,r8,31168
   44904:	01c00134 	movhi	r7,4
   44908:	39de8504 	addi	r7,r7,31252
   4490c:	01800134 	movhi	r6,4
   44910:	319ea704 	addi	r6,r6,31388
   44914:	01000134 	movhi	r4,4
   44918:	211ebe04 	addi	r4,r4,31480
   4491c:	02800104 	movi	r10,4
   44920:	28000015 	stw	zero,0(r5)
   44924:	28000115 	stw	zero,4(r5)
   44928:	28000215 	stw	zero,8(r5)
   4492c:	2a80030d 	sth	r10,12(r5)
   44930:	2800038d 	sth	zero,14(r5)
   44934:	28000415 	stw	zero,16(r5)
   44938:	28000515 	stw	zero,20(r5)
   4493c:	28000615 	stw	zero,24(r5)
   44940:	29400715 	stw	r5,28(r5)
   44944:	2a000815 	stw	r8,32(r5)
   44948:	29c00915 	stw	r7,36(r5)
   4494c:	29800a15 	stw	r6,40(r5)
   44950:	29000b15 	stw	r4,44(r5)
   44954:	01400284 	movi	r5,10
   44958:	18000015 	stw	zero,0(r3)
   4495c:	18000115 	stw	zero,4(r3)
   44960:	18000215 	stw	zero,8(r3)
   44964:	1940030d 	sth	r5,12(r3)
   44968:	1a40038d 	sth	r9,14(r3)
   4496c:	18000415 	stw	zero,16(r3)
   44970:	18000515 	stw	zero,20(r3)
   44974:	18000615 	stw	zero,24(r3)
   44978:	18c00715 	stw	r3,28(r3)
   4497c:	1a000815 	stw	r8,32(r3)
   44980:	19c00915 	stw	r7,36(r3)
   44984:	19800a15 	stw	r6,40(r3)
   44988:	19000b15 	stw	r4,44(r3)
   4498c:	00c00484 	movi	r3,18
   44990:	10c0030d 	sth	r3,12(r2)
   44994:	00c00084 	movi	r3,2
   44998:	10000015 	stw	zero,0(r2)
   4499c:	10000115 	stw	zero,4(r2)
   449a0:	10000215 	stw	zero,8(r2)
   449a4:	10c0038d 	sth	r3,14(r2)
   449a8:	10000415 	stw	zero,16(r2)
   449ac:	10000515 	stw	zero,20(r2)
   449b0:	10000615 	stw	zero,24(r2)
   449b4:	10800715 	stw	r2,28(r2)
   449b8:	12000815 	stw	r8,32(r2)
   449bc:	11c00915 	stw	r7,36(r2)
   449c0:	11800a15 	stw	r6,40(r2)
   449c4:	11000b15 	stw	r4,44(r2)
   449c8:	f800283a 	ret

000449cc <__sfp>:
   449cc:	defffc04 	addi	sp,sp,-16
   449d0:	00800174 	movhi	r2,5
   449d4:	10b7cc04 	addi	r2,r2,-8400
   449d8:	dc400115 	stw	r17,4(sp)
   449dc:	14400017 	ldw	r17,0(r2)
   449e0:	dc800215 	stw	r18,8(sp)
   449e4:	dfc00315 	stw	ra,12(sp)
   449e8:	88800e17 	ldw	r2,56(r17)
   449ec:	dc000015 	stw	r16,0(sp)
   449f0:	2025883a 	mov	r18,r4
   449f4:	10002826 	beq	r2,zero,44a98 <__sfp+0xcc>
   449f8:	8c40b804 	addi	r17,r17,736
   449fc:	043fffc4 	movi	r16,-1
   44a00:	89400117 	ldw	r5,4(r17)
   44a04:	88800217 	ldw	r2,8(r17)
   44a08:	297fffc4 	addi	r5,r5,-1
   44a0c:	28000a16 	blt	r5,zero,44a38 <__sfp+0x6c>
   44a10:	10c0030f 	ldh	r3,12(r2)
   44a14:	18000c26 	beq	r3,zero,44a48 <__sfp+0x7c>
   44a18:	10c01a04 	addi	r3,r2,104
   44a1c:	00000206 	br	44a28 <__sfp+0x5c>
   44a20:	19bfe90f 	ldh	r6,-92(r3)
   44a24:	30000826 	beq	r6,zero,44a48 <__sfp+0x7c>
   44a28:	297fffc4 	addi	r5,r5,-1
   44a2c:	18bffd04 	addi	r2,r3,-12
   44a30:	18c01704 	addi	r3,r3,92
   44a34:	2c3ffa1e 	bne	r5,r16,44a20 <__alt_data_end+0xfffdd920>
   44a38:	88800017 	ldw	r2,0(r17)
   44a3c:	10001926 	beq	r2,zero,44aa4 <__sfp+0xd8>
   44a40:	1023883a 	mov	r17,r2
   44a44:	003fee06 	br	44a00 <__alt_data_end+0xfffdd900>
   44a48:	00ffffc4 	movi	r3,-1
   44a4c:	10c0038d 	sth	r3,14(r2)
   44a50:	00c00044 	movi	r3,1
   44a54:	10c0030d 	sth	r3,12(r2)
   44a58:	10000015 	stw	zero,0(r2)
   44a5c:	10000215 	stw	zero,8(r2)
   44a60:	10000115 	stw	zero,4(r2)
   44a64:	10000415 	stw	zero,16(r2)
   44a68:	10000515 	stw	zero,20(r2)
   44a6c:	10000615 	stw	zero,24(r2)
   44a70:	10000c15 	stw	zero,48(r2)
   44a74:	10000d15 	stw	zero,52(r2)
   44a78:	10001115 	stw	zero,68(r2)
   44a7c:	10001215 	stw	zero,72(r2)
   44a80:	dfc00317 	ldw	ra,12(sp)
   44a84:	dc800217 	ldw	r18,8(sp)
   44a88:	dc400117 	ldw	r17,4(sp)
   44a8c:	dc000017 	ldw	r16,0(sp)
   44a90:	dec00404 	addi	sp,sp,16
   44a94:	f800283a 	ret
   44a98:	8809883a 	mov	r4,r17
   44a9c:	00448c00 	call	448c0 <__sinit>
   44aa0:	003fd506 	br	449f8 <__alt_data_end+0xfffdd8f8>
   44aa4:	9009883a 	mov	r4,r18
   44aa8:	01400104 	movi	r5,4
   44aac:	004484c0 	call	4484c <__sfmoreglue>
   44ab0:	88800015 	stw	r2,0(r17)
   44ab4:	103fe21e 	bne	r2,zero,44a40 <__alt_data_end+0xfffdd940>
   44ab8:	00800304 	movi	r2,12
   44abc:	90800015 	stw	r2,0(r18)
   44ac0:	0005883a 	mov	r2,zero
   44ac4:	003fee06 	br	44a80 <__alt_data_end+0xfffdd980>

00044ac8 <__sfp_lock_acquire>:
   44ac8:	f800283a 	ret

00044acc <__sfp_lock_release>:
   44acc:	f800283a 	ret

00044ad0 <__sinit_lock_acquire>:
   44ad0:	f800283a 	ret

00044ad4 <__sinit_lock_release>:
   44ad4:	f800283a 	ret

00044ad8 <__fp_lock_all>:
   44ad8:	00800174 	movhi	r2,5
   44adc:	10b7cd04 	addi	r2,r2,-8396
   44ae0:	11000017 	ldw	r4,0(r2)
   44ae4:	01400134 	movhi	r5,4
   44ae8:	29520c04 	addi	r5,r5,18480
   44aec:	00453f81 	jmpi	453f8 <_fwalk>

00044af0 <__fp_unlock_all>:
   44af0:	00800174 	movhi	r2,5
   44af4:	10b7cd04 	addi	r2,r2,-8396
   44af8:	11000017 	ldw	r4,0(r2)
   44afc:	01400134 	movhi	r5,4
   44b00:	29520e04 	addi	r5,r5,18488
   44b04:	00453f81 	jmpi	453f8 <_fwalk>

00044b08 <_malloc_trim_r>:
   44b08:	defffb04 	addi	sp,sp,-20
   44b0c:	dcc00315 	stw	r19,12(sp)
   44b10:	dc800215 	stw	r18,8(sp)
   44b14:	dc400115 	stw	r17,4(sp)
   44b18:	dc000015 	stw	r16,0(sp)
   44b1c:	2827883a 	mov	r19,r5
   44b20:	dfc00415 	stw	ra,16(sp)
   44b24:	04400174 	movhi	r17,5
   44b28:	8c724804 	addi	r17,r17,-14048
   44b2c:	2021883a 	mov	r16,r4
   44b30:	0049f080 	call	49f08 <__malloc_lock>
   44b34:	88800217 	ldw	r2,8(r17)
   44b38:	14800117 	ldw	r18,4(r2)
   44b3c:	00bfff04 	movi	r2,-4
   44b40:	90a4703a 	and	r18,r18,r2
   44b44:	9083fbc4 	addi	r2,r18,4079
   44b48:	14e7c83a 	sub	r19,r2,r19
   44b4c:	9826d33a 	srli	r19,r19,12
   44b50:	0083ffc4 	movi	r2,4095
   44b54:	9cffffc4 	addi	r19,r19,-1
   44b58:	9826933a 	slli	r19,r19,12
   44b5c:	14c0060e 	bge	r2,r19,44b78 <_malloc_trim_r+0x70>
   44b60:	8009883a 	mov	r4,r16
   44b64:	000b883a 	mov	r5,zero
   44b68:	004795c0 	call	4795c <_sbrk_r>
   44b6c:	88c00217 	ldw	r3,8(r17)
   44b70:	1c87883a 	add	r3,r3,r18
   44b74:	10c00a26 	beq	r2,r3,44ba0 <_malloc_trim_r+0x98>
   44b78:	8009883a 	mov	r4,r16
   44b7c:	0049f280 	call	49f28 <__malloc_unlock>
   44b80:	0005883a 	mov	r2,zero
   44b84:	dfc00417 	ldw	ra,16(sp)
   44b88:	dcc00317 	ldw	r19,12(sp)
   44b8c:	dc800217 	ldw	r18,8(sp)
   44b90:	dc400117 	ldw	r17,4(sp)
   44b94:	dc000017 	ldw	r16,0(sp)
   44b98:	dec00504 	addi	sp,sp,20
   44b9c:	f800283a 	ret
   44ba0:	8009883a 	mov	r4,r16
   44ba4:	04cbc83a 	sub	r5,zero,r19
   44ba8:	004795c0 	call	4795c <_sbrk_r>
   44bac:	00ffffc4 	movi	r3,-1
   44bb0:	10c01326 	beq	r2,r3,44c00 <_malloc_trim_r+0xf8>
   44bb4:	00800174 	movhi	r2,5
   44bb8:	10be7e04 	addi	r2,r2,-1544
   44bbc:	11000017 	ldw	r4,0(r2)
   44bc0:	88c00217 	ldw	r3,8(r17)
   44bc4:	94e5c83a 	sub	r18,r18,r19
   44bc8:	94800054 	ori	r18,r18,1
   44bcc:	24e7c83a 	sub	r19,r4,r19
   44bd0:	1c800115 	stw	r18,4(r3)
   44bd4:	8009883a 	mov	r4,r16
   44bd8:	14c00015 	stw	r19,0(r2)
   44bdc:	0049f280 	call	49f28 <__malloc_unlock>
   44be0:	00800044 	movi	r2,1
   44be4:	dfc00417 	ldw	ra,16(sp)
   44be8:	dcc00317 	ldw	r19,12(sp)
   44bec:	dc800217 	ldw	r18,8(sp)
   44bf0:	dc400117 	ldw	r17,4(sp)
   44bf4:	dc000017 	ldw	r16,0(sp)
   44bf8:	dec00504 	addi	sp,sp,20
   44bfc:	f800283a 	ret
   44c00:	8009883a 	mov	r4,r16
   44c04:	000b883a 	mov	r5,zero
   44c08:	004795c0 	call	4795c <_sbrk_r>
   44c0c:	88c00217 	ldw	r3,8(r17)
   44c10:	014003c4 	movi	r5,15
   44c14:	10c9c83a 	sub	r4,r2,r3
   44c18:	293fd70e 	bge	r5,r4,44b78 <__alt_data_end+0xfffdda78>
   44c1c:	01400174 	movhi	r5,5
   44c20:	2977cf04 	addi	r5,r5,-8388
   44c24:	29400017 	ldw	r5,0(r5)
   44c28:	21000054 	ori	r4,r4,1
   44c2c:	19000115 	stw	r4,4(r3)
   44c30:	1145c83a 	sub	r2,r2,r5
   44c34:	01400174 	movhi	r5,5
   44c38:	297e7e04 	addi	r5,r5,-1544
   44c3c:	28800015 	stw	r2,0(r5)
   44c40:	003fcd06 	br	44b78 <__alt_data_end+0xfffdda78>

00044c44 <_free_r>:
   44c44:	defffd04 	addi	sp,sp,-12
   44c48:	dc400115 	stw	r17,4(sp)
   44c4c:	dc000015 	stw	r16,0(sp)
   44c50:	dfc00215 	stw	ra,8(sp)
   44c54:	2821883a 	mov	r16,r5
   44c58:	2023883a 	mov	r17,r4
   44c5c:	28004b26 	beq	r5,zero,44d8c <_free_r+0x148>
   44c60:	0049f080 	call	49f08 <__malloc_lock>
   44c64:	823fff17 	ldw	r8,-4(r16)
   44c68:	00bfff84 	movi	r2,-2
   44c6c:	81bffe04 	addi	r6,r16,-8
   44c70:	4084703a 	and	r2,r8,r2
   44c74:	3087883a 	add	r3,r6,r2
   44c78:	01400174 	movhi	r5,5
   44c7c:	29724804 	addi	r5,r5,-14048
   44c80:	1a400117 	ldw	r9,4(r3)
   44c84:	29000217 	ldw	r4,8(r5)
   44c88:	01ffff04 	movi	r7,-4
   44c8c:	49ce703a 	and	r7,r9,r7
   44c90:	20c06526 	beq	r4,r3,44e28 <_free_r+0x1e4>
   44c94:	19c00115 	stw	r7,4(r3)
   44c98:	4200004c 	andi	r8,r8,1
   44c9c:	40003026 	beq	r8,zero,44d60 <_free_r+0x11c>
   44ca0:	0009883a 	mov	r4,zero
   44ca4:	19d1883a 	add	r8,r3,r7
   44ca8:	42000117 	ldw	r8,4(r8)
   44cac:	4200004c 	andi	r8,r8,1
   44cb0:	4000061e 	bne	r8,zero,44ccc <_free_r+0x88>
   44cb4:	11c5883a 	add	r2,r2,r7
   44cb8:	19c00217 	ldw	r7,8(r3)
   44cbc:	20004e26 	beq	r4,zero,44df8 <_free_r+0x1b4>
   44cc0:	18c00317 	ldw	r3,12(r3)
   44cc4:	38c00315 	stw	r3,12(r7)
   44cc8:	19c00215 	stw	r7,8(r3)
   44ccc:	11c00054 	ori	r7,r2,1
   44cd0:	3087883a 	add	r3,r6,r2
   44cd4:	31c00115 	stw	r7,4(r6)
   44cd8:	18800015 	stw	r2,0(r3)
   44cdc:	20001a1e 	bne	r4,zero,44d48 <_free_r+0x104>
   44ce0:	00c07fc4 	movi	r3,511
   44ce4:	18802e2e 	bgeu	r3,r2,44da0 <_free_r+0x15c>
   44ce8:	1006d27a 	srli	r3,r2,9
   44cec:	01000104 	movi	r4,4
   44cf0:	20c06636 	bltu	r4,r3,44e8c <_free_r+0x248>
   44cf4:	1008d1ba 	srli	r4,r2,6
   44cf8:	21000e04 	addi	r4,r4,56
   44cfc:	210f883a 	add	r7,r4,r4
   44d00:	39cf883a 	add	r7,r7,r7
   44d04:	39cf883a 	add	r7,r7,r7
   44d08:	29cf883a 	add	r7,r5,r7
   44d0c:	38c00217 	ldw	r3,8(r7)
   44d10:	01400174 	movhi	r5,5
   44d14:	29724804 	addi	r5,r5,-14048
   44d18:	19c06126 	beq	r3,r7,44ea0 <_free_r+0x25c>
   44d1c:	013fff04 	movi	r4,-4
   44d20:	19400117 	ldw	r5,4(r3)
   44d24:	290a703a 	and	r5,r5,r4
   44d28:	1140022e 	bgeu	r2,r5,44d34 <_free_r+0xf0>
   44d2c:	18c00217 	ldw	r3,8(r3)
   44d30:	38fffb1e 	bne	r7,r3,44d20 <__alt_data_end+0xfffddc20>
   44d34:	18800317 	ldw	r2,12(r3)
   44d38:	30800315 	stw	r2,12(r6)
   44d3c:	30c00215 	stw	r3,8(r6)
   44d40:	11800215 	stw	r6,8(r2)
   44d44:	19800315 	stw	r6,12(r3)
   44d48:	8809883a 	mov	r4,r17
   44d4c:	dfc00217 	ldw	ra,8(sp)
   44d50:	dc400117 	ldw	r17,4(sp)
   44d54:	dc000017 	ldw	r16,0(sp)
   44d58:	dec00304 	addi	sp,sp,12
   44d5c:	0049f281 	jmpi	49f28 <__malloc_unlock>
   44d60:	813ffe17 	ldw	r4,-8(r16)
   44d64:	2a400204 	addi	r9,r5,8
   44d68:	310dc83a 	sub	r6,r6,r4
   44d6c:	32000217 	ldw	r8,8(r6)
   44d70:	1105883a 	add	r2,r2,r4
   44d74:	42404326 	beq	r8,r9,44e84 <_free_r+0x240>
   44d78:	32400317 	ldw	r9,12(r6)
   44d7c:	0009883a 	mov	r4,zero
   44d80:	42400315 	stw	r9,12(r8)
   44d84:	4a000215 	stw	r8,8(r9)
   44d88:	003fc606 	br	44ca4 <__alt_data_end+0xfffddba4>
   44d8c:	dfc00217 	ldw	ra,8(sp)
   44d90:	dc400117 	ldw	r17,4(sp)
   44d94:	dc000017 	ldw	r16,0(sp)
   44d98:	dec00304 	addi	sp,sp,12
   44d9c:	f800283a 	ret
   44da0:	1004d0fa 	srli	r2,r2,3
   44da4:	02000044 	movi	r8,1
   44da8:	29c00117 	ldw	r7,4(r5)
   44dac:	1087883a 	add	r3,r2,r2
   44db0:	18c7883a 	add	r3,r3,r3
   44db4:	1005d0ba 	srai	r2,r2,2
   44db8:	18c7883a 	add	r3,r3,r3
   44dbc:	28c7883a 	add	r3,r5,r3
   44dc0:	19000217 	ldw	r4,8(r3)
   44dc4:	4084983a 	sll	r2,r8,r2
   44dc8:	30c00315 	stw	r3,12(r6)
   44dcc:	31000215 	stw	r4,8(r6)
   44dd0:	11c4b03a 	or	r2,r2,r7
   44dd4:	21800315 	stw	r6,12(r4)
   44dd8:	8809883a 	mov	r4,r17
   44ddc:	28800115 	stw	r2,4(r5)
   44de0:	19800215 	stw	r6,8(r3)
   44de4:	dfc00217 	ldw	ra,8(sp)
   44de8:	dc400117 	ldw	r17,4(sp)
   44dec:	dc000017 	ldw	r16,0(sp)
   44df0:	dec00304 	addi	sp,sp,12
   44df4:	0049f281 	jmpi	49f28 <__malloc_unlock>
   44df8:	02000174 	movhi	r8,5
   44dfc:	42324a04 	addi	r8,r8,-14040
   44e00:	3a3faf1e 	bne	r7,r8,44cc0 <__alt_data_end+0xfffddbc0>
   44e04:	29800515 	stw	r6,20(r5)
   44e08:	29800415 	stw	r6,16(r5)
   44e0c:	11000054 	ori	r4,r2,1
   44e10:	3087883a 	add	r3,r6,r2
   44e14:	31c00315 	stw	r7,12(r6)
   44e18:	31c00215 	stw	r7,8(r6)
   44e1c:	31000115 	stw	r4,4(r6)
   44e20:	18800015 	stw	r2,0(r3)
   44e24:	003fc806 	br	44d48 <__alt_data_end+0xfffddc48>
   44e28:	4200004c 	andi	r8,r8,1
   44e2c:	3885883a 	add	r2,r7,r2
   44e30:	4000071e 	bne	r8,zero,44e50 <_free_r+0x20c>
   44e34:	81fffe17 	ldw	r7,-8(r16)
   44e38:	31cdc83a 	sub	r6,r6,r7
   44e3c:	30c00317 	ldw	r3,12(r6)
   44e40:	31000217 	ldw	r4,8(r6)
   44e44:	11c5883a 	add	r2,r2,r7
   44e48:	20c00315 	stw	r3,12(r4)
   44e4c:	19000215 	stw	r4,8(r3)
   44e50:	00c00174 	movhi	r3,5
   44e54:	18f7d004 	addi	r3,r3,-8384
   44e58:	18c00017 	ldw	r3,0(r3)
   44e5c:	11000054 	ori	r4,r2,1
   44e60:	31000115 	stw	r4,4(r6)
   44e64:	29800215 	stw	r6,8(r5)
   44e68:	10ffb736 	bltu	r2,r3,44d48 <__alt_data_end+0xfffddc48>
   44e6c:	00800174 	movhi	r2,5
   44e70:	10be7604 	addi	r2,r2,-1576
   44e74:	11400017 	ldw	r5,0(r2)
   44e78:	8809883a 	mov	r4,r17
   44e7c:	0044b080 	call	44b08 <_malloc_trim_r>
   44e80:	003fb106 	br	44d48 <__alt_data_end+0xfffddc48>
   44e84:	01000044 	movi	r4,1
   44e88:	003f8606 	br	44ca4 <__alt_data_end+0xfffddba4>
   44e8c:	01000504 	movi	r4,20
   44e90:	20c00b36 	bltu	r4,r3,44ec0 <_free_r+0x27c>
   44e94:	190016c4 	addi	r4,r3,91
   44e98:	210f883a 	add	r7,r4,r4
   44e9c:	003f9806 	br	44d00 <__alt_data_end+0xfffddc00>
   44ea0:	2009d0ba 	srai	r4,r4,2
   44ea4:	00800044 	movi	r2,1
   44ea8:	29c00117 	ldw	r7,4(r5)
   44eac:	1108983a 	sll	r4,r2,r4
   44eb0:	1805883a 	mov	r2,r3
   44eb4:	21c8b03a 	or	r4,r4,r7
   44eb8:	29000115 	stw	r4,4(r5)
   44ebc:	003f9e06 	br	44d38 <__alt_data_end+0xfffddc38>
   44ec0:	01001504 	movi	r4,84
   44ec4:	20c00436 	bltu	r4,r3,44ed8 <_free_r+0x294>
   44ec8:	1008d33a 	srli	r4,r2,12
   44ecc:	21001b84 	addi	r4,r4,110
   44ed0:	210f883a 	add	r7,r4,r4
   44ed4:	003f8a06 	br	44d00 <__alt_data_end+0xfffddc00>
   44ed8:	01005504 	movi	r4,340
   44edc:	20c00436 	bltu	r4,r3,44ef0 <_free_r+0x2ac>
   44ee0:	1008d3fa 	srli	r4,r2,15
   44ee4:	21001dc4 	addi	r4,r4,119
   44ee8:	210f883a 	add	r7,r4,r4
   44eec:	003f8406 	br	44d00 <__alt_data_end+0xfffddc00>
   44ef0:	01015504 	movi	r4,1364
   44ef4:	20c00436 	bltu	r4,r3,44f08 <_free_r+0x2c4>
   44ef8:	1008d4ba 	srli	r4,r2,18
   44efc:	21001f04 	addi	r4,r4,124
   44f00:	210f883a 	add	r7,r4,r4
   44f04:	003f7e06 	br	44d00 <__alt_data_end+0xfffddc00>
   44f08:	01c03f04 	movi	r7,252
   44f0c:	01001f84 	movi	r4,126
   44f10:	003f7b06 	br	44d00 <__alt_data_end+0xfffddc00>

00044f14 <__sfvwrite_r>:
   44f14:	30800217 	ldw	r2,8(r6)
   44f18:	defff504 	addi	sp,sp,-44
   44f1c:	dd400615 	stw	r21,24(sp)
   44f20:	dd000515 	stw	r20,20(sp)
   44f24:	dc000115 	stw	r16,4(sp)
   44f28:	dfc00a15 	stw	ra,40(sp)
   44f2c:	df000915 	stw	fp,36(sp)
   44f30:	ddc00815 	stw	r23,32(sp)
   44f34:	dd800715 	stw	r22,28(sp)
   44f38:	dcc00415 	stw	r19,16(sp)
   44f3c:	dc800315 	stw	r18,12(sp)
   44f40:	dc400215 	stw	r17,8(sp)
   44f44:	3029883a 	mov	r20,r6
   44f48:	202b883a 	mov	r21,r4
   44f4c:	2821883a 	mov	r16,r5
   44f50:	10002126 	beq	r2,zero,44fd8 <__sfvwrite_r+0xc4>
   44f54:	2880030b 	ldhu	r2,12(r5)
   44f58:	10c0020c 	andi	r3,r2,8
   44f5c:	18ffffcc 	andi	r3,r3,65535
   44f60:	18e0001c 	xori	r3,r3,32768
   44f64:	18e00004 	addi	r3,r3,-32768
   44f68:	18002826 	beq	r3,zero,4500c <__sfvwrite_r+0xf8>
   44f6c:	28c00417 	ldw	r3,16(r5)
   44f70:	18002626 	beq	r3,zero,4500c <__sfvwrite_r+0xf8>
   44f74:	10c0008c 	andi	r3,r2,2
   44f78:	18ffffcc 	andi	r3,r3,65535
   44f7c:	18e0001c 	xori	r3,r3,32768
   44f80:	18e00004 	addi	r3,r3,-32768
   44f84:	a4400017 	ldw	r17,0(r20)
   44f88:	18002b26 	beq	r3,zero,45038 <__sfvwrite_r+0x124>
   44f8c:	0027883a 	mov	r19,zero
   44f90:	0025883a 	mov	r18,zero
   44f94:	05810004 	movi	r22,1024
   44f98:	980d883a 	mov	r6,r19
   44f9c:	a809883a 	mov	r4,r21
   44fa0:	90004f26 	beq	r18,zero,450e0 <__sfvwrite_r+0x1cc>
   44fa4:	900f883a 	mov	r7,r18
   44fa8:	81400717 	ldw	r5,28(r16)
   44fac:	b480012e 	bgeu	r22,r18,44fb4 <__sfvwrite_r+0xa0>
   44fb0:	01c10004 	movi	r7,1024
   44fb4:	80800917 	ldw	r2,36(r16)
   44fb8:	103ee83a 	callr	r2
   44fbc:	0080540e 	bge	zero,r2,45110 <__sfvwrite_r+0x1fc>
   44fc0:	a0c00217 	ldw	r3,8(r20)
   44fc4:	98a7883a 	add	r19,r19,r2
   44fc8:	90a5c83a 	sub	r18,r18,r2
   44fcc:	1885c83a 	sub	r2,r3,r2
   44fd0:	a0800215 	stw	r2,8(r20)
   44fd4:	103ff01e 	bne	r2,zero,44f98 <__alt_data_end+0xfffdde98>
   44fd8:	0005883a 	mov	r2,zero
   44fdc:	dfc00a17 	ldw	ra,40(sp)
   44fe0:	df000917 	ldw	fp,36(sp)
   44fe4:	ddc00817 	ldw	r23,32(sp)
   44fe8:	dd800717 	ldw	r22,28(sp)
   44fec:	dd400617 	ldw	r21,24(sp)
   44ff0:	dd000517 	ldw	r20,20(sp)
   44ff4:	dcc00417 	ldw	r19,16(sp)
   44ff8:	dc800317 	ldw	r18,12(sp)
   44ffc:	dc400217 	ldw	r17,8(sp)
   45000:	dc000117 	ldw	r16,4(sp)
   45004:	dec00b04 	addi	sp,sp,44
   45008:	f800283a 	ret
   4500c:	a809883a 	mov	r4,r21
   45010:	800b883a 	mov	r5,r16
   45014:	0042c800 	call	42c80 <__swsetup_r>
   45018:	1000f01e 	bne	r2,zero,453dc <__sfvwrite_r+0x4c8>
   4501c:	8080030b 	ldhu	r2,12(r16)
   45020:	a4400017 	ldw	r17,0(r20)
   45024:	10c0008c 	andi	r3,r2,2
   45028:	18ffffcc 	andi	r3,r3,65535
   4502c:	18e0001c 	xori	r3,r3,32768
   45030:	18e00004 	addi	r3,r3,-32768
   45034:	183fd51e 	bne	r3,zero,44f8c <__alt_data_end+0xfffdde8c>
   45038:	10c0004c 	andi	r3,r2,1
   4503c:	002d883a 	mov	r22,zero
   45040:	1800381e 	bne	r3,zero,45124 <__sfvwrite_r+0x210>
   45044:	0025883a 	mov	r18,zero
   45048:	90002126 	beq	r18,zero,450d0 <__sfvwrite_r+0x1bc>
   4504c:	10c0800c 	andi	r3,r2,512
   45050:	18ffffcc 	andi	r3,r3,65535
   45054:	18e0001c 	xori	r3,r3,32768
   45058:	18e00004 	addi	r3,r3,-32768
   4505c:	84c00217 	ldw	r19,8(r16)
   45060:	18006b26 	beq	r3,zero,45210 <__sfvwrite_r+0x2fc>
   45064:	980f883a 	mov	r7,r19
   45068:	94c08636 	bltu	r18,r19,45284 <__sfvwrite_r+0x370>
   4506c:	10c1200c 	andi	r3,r2,1152
   45070:	18009f1e 	bne	r3,zero,452f0 <__sfvwrite_r+0x3dc>
   45074:	81000017 	ldw	r4,0(r16)
   45078:	982f883a 	mov	r23,r19
   4507c:	9039883a 	mov	fp,r18
   45080:	9027883a 	mov	r19,r18
   45084:	380d883a 	mov	r6,r7
   45088:	b00b883a 	mov	r5,r22
   4508c:	d9c00015 	stw	r7,0(sp)
   45090:	00461500 	call	46150 <memmove>
   45094:	d9c00017 	ldw	r7,0(sp)
   45098:	81000217 	ldw	r4,8(r16)
   4509c:	80800017 	ldw	r2,0(r16)
   450a0:	25efc83a 	sub	r23,r4,r23
   450a4:	11cf883a 	add	r7,r2,r7
   450a8:	85c00215 	stw	r23,8(r16)
   450ac:	81c00015 	stw	r7,0(r16)
   450b0:	a0800217 	ldw	r2,8(r20)
   450b4:	b72d883a 	add	r22,r22,fp
   450b8:	9725c83a 	sub	r18,r18,fp
   450bc:	14e7c83a 	sub	r19,r2,r19
   450c0:	a4c00215 	stw	r19,8(r20)
   450c4:	983fc426 	beq	r19,zero,44fd8 <__alt_data_end+0xfffdded8>
   450c8:	8080030b 	ldhu	r2,12(r16)
   450cc:	903fdf1e 	bne	r18,zero,4504c <__alt_data_end+0xfffddf4c>
   450d0:	8d800017 	ldw	r22,0(r17)
   450d4:	8c800117 	ldw	r18,4(r17)
   450d8:	8c400204 	addi	r17,r17,8
   450dc:	003fda06 	br	45048 <__alt_data_end+0xfffddf48>
   450e0:	8cc00017 	ldw	r19,0(r17)
   450e4:	8c800117 	ldw	r18,4(r17)
   450e8:	8c400204 	addi	r17,r17,8
   450ec:	003faa06 	br	44f98 <__alt_data_end+0xfffdde98>
   450f0:	00472fc0 	call	472fc <_realloc_r>
   450f4:	102f883a 	mov	r23,r2
   450f8:	10009f1e 	bne	r2,zero,45378 <__sfvwrite_r+0x464>
   450fc:	81400417 	ldw	r5,16(r16)
   45100:	a809883a 	mov	r4,r21
   45104:	0044c440 	call	44c44 <_free_r>
   45108:	00800304 	movi	r2,12
   4510c:	a8800015 	stw	r2,0(r21)
   45110:	80c0030b 	ldhu	r3,12(r16)
   45114:	00bfffc4 	movi	r2,-1
   45118:	18c01014 	ori	r3,r3,64
   4511c:	80c0030d 	sth	r3,12(r16)
   45120:	003fae06 	br	44fdc <__alt_data_end+0xfffddedc>
   45124:	0007883a 	mov	r3,zero
   45128:	0039883a 	mov	fp,zero
   4512c:	0025883a 	mov	r18,zero
   45130:	90001e26 	beq	r18,zero,451ac <__sfvwrite_r+0x298>
   45134:	18006526 	beq	r3,zero,452cc <__sfvwrite_r+0x3b8>
   45138:	b02f883a 	mov	r23,r22
   4513c:	9580012e 	bgeu	r18,r22,45144 <__sfvwrite_r+0x230>
   45140:	902f883a 	mov	r23,r18
   45144:	81000017 	ldw	r4,0(r16)
   45148:	80800417 	ldw	r2,16(r16)
   4514c:	84c00217 	ldw	r19,8(r16)
   45150:	81c00517 	ldw	r7,20(r16)
   45154:	1100022e 	bgeu	r2,r4,45160 <__sfvwrite_r+0x24c>
   45158:	99e7883a 	add	r19,r19,r7
   4515c:	9dc01816 	blt	r19,r23,451c0 <__sfvwrite_r+0x2ac>
   45160:	b9c03b16 	blt	r23,r7,45250 <__sfvwrite_r+0x33c>
   45164:	80800917 	ldw	r2,36(r16)
   45168:	81400717 	ldw	r5,28(r16)
   4516c:	a809883a 	mov	r4,r21
   45170:	d8c00015 	stw	r3,0(sp)
   45174:	e00d883a 	mov	r6,fp
   45178:	103ee83a 	callr	r2
   4517c:	1027883a 	mov	r19,r2
   45180:	d8c00017 	ldw	r3,0(sp)
   45184:	00bfe20e 	bge	zero,r2,45110 <__alt_data_end+0xfffde010>
   45188:	b4edc83a 	sub	r22,r22,r19
   4518c:	b0001a26 	beq	r22,zero,451f8 <__sfvwrite_r+0x2e4>
   45190:	a0800217 	ldw	r2,8(r20)
   45194:	e4f9883a 	add	fp,fp,r19
   45198:	94e5c83a 	sub	r18,r18,r19
   4519c:	14e7c83a 	sub	r19,r2,r19
   451a0:	a4c00215 	stw	r19,8(r20)
   451a4:	983f8c26 	beq	r19,zero,44fd8 <__alt_data_end+0xfffdded8>
   451a8:	903fe21e 	bne	r18,zero,45134 <__alt_data_end+0xfffde034>
   451ac:	8f000017 	ldw	fp,0(r17)
   451b0:	8c800117 	ldw	r18,4(r17)
   451b4:	0007883a 	mov	r3,zero
   451b8:	8c400204 	addi	r17,r17,8
   451bc:	003fdc06 	br	45130 <__alt_data_end+0xfffde030>
   451c0:	e00b883a 	mov	r5,fp
   451c4:	980d883a 	mov	r6,r19
   451c8:	d8c00015 	stw	r3,0(sp)
   451cc:	00461500 	call	46150 <memmove>
   451d0:	80800017 	ldw	r2,0(r16)
   451d4:	a809883a 	mov	r4,r21
   451d8:	800b883a 	mov	r5,r16
   451dc:	14c5883a 	add	r2,r2,r19
   451e0:	80800015 	stw	r2,0(r16)
   451e4:	00446180 	call	44618 <_fflush_r>
   451e8:	d8c00017 	ldw	r3,0(sp)
   451ec:	103fc81e 	bne	r2,zero,45110 <__alt_data_end+0xfffde010>
   451f0:	b4edc83a 	sub	r22,r22,r19
   451f4:	b03fe61e 	bne	r22,zero,45190 <__alt_data_end+0xfffde090>
   451f8:	a809883a 	mov	r4,r21
   451fc:	800b883a 	mov	r5,r16
   45200:	00446180 	call	44618 <_fflush_r>
   45204:	103fc21e 	bne	r2,zero,45110 <__alt_data_end+0xfffde010>
   45208:	0007883a 	mov	r3,zero
   4520c:	003fe006 	br	45190 <__alt_data_end+0xfffde090>
   45210:	81000017 	ldw	r4,0(r16)
   45214:	80800417 	ldw	r2,16(r16)
   45218:	1100022e 	bgeu	r2,r4,45224 <__sfvwrite_r+0x310>
   4521c:	9839883a 	mov	fp,r19
   45220:	9c806036 	bltu	r19,r18,453a4 <__sfvwrite_r+0x490>
   45224:	81c00517 	ldw	r7,20(r16)
   45228:	91c01c36 	bltu	r18,r7,4529c <__sfvwrite_r+0x388>
   4522c:	80800917 	ldw	r2,36(r16)
   45230:	81400717 	ldw	r5,28(r16)
   45234:	a809883a 	mov	r4,r21
   45238:	b00d883a 	mov	r6,r22
   4523c:	103ee83a 	callr	r2
   45240:	1027883a 	mov	r19,r2
   45244:	00bfb20e 	bge	zero,r2,45110 <__alt_data_end+0xfffde010>
   45248:	1039883a 	mov	fp,r2
   4524c:	003f9806 	br	450b0 <__alt_data_end+0xfffddfb0>
   45250:	b80d883a 	mov	r6,r23
   45254:	e00b883a 	mov	r5,fp
   45258:	d8c00015 	stw	r3,0(sp)
   4525c:	00461500 	call	46150 <memmove>
   45260:	80800217 	ldw	r2,8(r16)
   45264:	81000017 	ldw	r4,0(r16)
   45268:	b827883a 	mov	r19,r23
   4526c:	15c5c83a 	sub	r2,r2,r23
   45270:	25ef883a 	add	r23,r4,r23
   45274:	80800215 	stw	r2,8(r16)
   45278:	85c00015 	stw	r23,0(r16)
   4527c:	d8c00017 	ldw	r3,0(sp)
   45280:	003fc106 	br	45188 <__alt_data_end+0xfffde088>
   45284:	81000017 	ldw	r4,0(r16)
   45288:	902f883a 	mov	r23,r18
   4528c:	9039883a 	mov	fp,r18
   45290:	9027883a 	mov	r19,r18
   45294:	900f883a 	mov	r7,r18
   45298:	003f7a06 	br	45084 <__alt_data_end+0xfffddf84>
   4529c:	b00b883a 	mov	r5,r22
   452a0:	900d883a 	mov	r6,r18
   452a4:	00461500 	call	46150 <memmove>
   452a8:	80c00217 	ldw	r3,8(r16)
   452ac:	80800017 	ldw	r2,0(r16)
   452b0:	9027883a 	mov	r19,r18
   452b4:	1c87c83a 	sub	r3,r3,r18
   452b8:	1485883a 	add	r2,r2,r18
   452bc:	80c00215 	stw	r3,8(r16)
   452c0:	80800015 	stw	r2,0(r16)
   452c4:	9039883a 	mov	fp,r18
   452c8:	003f7906 	br	450b0 <__alt_data_end+0xfffddfb0>
   452cc:	e009883a 	mov	r4,fp
   452d0:	01400284 	movi	r5,10
   452d4:	900d883a 	mov	r6,r18
   452d8:	0045f600 	call	45f60 <memchr>
   452dc:	10003c26 	beq	r2,zero,453d0 <__sfvwrite_r+0x4bc>
   452e0:	15800044 	addi	r22,r2,1
   452e4:	b72dc83a 	sub	r22,r22,fp
   452e8:	00c00044 	movi	r3,1
   452ec:	003f9206 	br	45138 <__alt_data_end+0xfffde038>
   452f0:	81000517 	ldw	r4,20(r16)
   452f4:	81400417 	ldw	r5,16(r16)
   452f8:	80c00017 	ldw	r3,0(r16)
   452fc:	210d883a 	add	r6,r4,r4
   45300:	3109883a 	add	r4,r6,r4
   45304:	2026d7fa 	srli	r19,r4,31
   45308:	1979c83a 	sub	fp,r3,r5
   4530c:	e1800044 	addi	r6,fp,1
   45310:	9909883a 	add	r4,r19,r4
   45314:	2027d07a 	srai	r19,r4,1
   45318:	3489883a 	add	r4,r6,r18
   4531c:	980d883a 	mov	r6,r19
   45320:	9900022e 	bgeu	r19,r4,4532c <__sfvwrite_r+0x418>
   45324:	2027883a 	mov	r19,r4
   45328:	200d883a 	mov	r6,r4
   4532c:	1081000c 	andi	r2,r2,1024
   45330:	10bfffcc 	andi	r2,r2,65535
   45334:	10a0001c 	xori	r2,r2,32768
   45338:	10a00004 	addi	r2,r2,-32768
   4533c:	a809883a 	mov	r4,r21
   45340:	103f6b26 	beq	r2,zero,450f0 <__alt_data_end+0xfffddff0>
   45344:	300b883a 	mov	r5,r6
   45348:	00457dc0 	call	457dc <_malloc_r>
   4534c:	102f883a 	mov	r23,r2
   45350:	103f6d26 	beq	r2,zero,45108 <__alt_data_end+0xfffde008>
   45354:	81400417 	ldw	r5,16(r16)
   45358:	1009883a 	mov	r4,r2
   4535c:	e00d883a 	mov	r6,fp
   45360:	00460580 	call	46058 <memcpy>
   45364:	8080030b 	ldhu	r2,12(r16)
   45368:	00fedfc4 	movi	r3,-1153
   4536c:	10c4703a 	and	r2,r2,r3
   45370:	10802014 	ori	r2,r2,128
   45374:	8080030d 	sth	r2,12(r16)
   45378:	bf09883a 	add	r4,r23,fp
   4537c:	9f07c83a 	sub	r3,r19,fp
   45380:	85c00415 	stw	r23,16(r16)
   45384:	84c00515 	stw	r19,20(r16)
   45388:	81000015 	stw	r4,0(r16)
   4538c:	902f883a 	mov	r23,r18
   45390:	80c00215 	stw	r3,8(r16)
   45394:	9039883a 	mov	fp,r18
   45398:	9027883a 	mov	r19,r18
   4539c:	900f883a 	mov	r7,r18
   453a0:	003f3806 	br	45084 <__alt_data_end+0xfffddf84>
   453a4:	b00b883a 	mov	r5,r22
   453a8:	980d883a 	mov	r6,r19
   453ac:	00461500 	call	46150 <memmove>
   453b0:	80800017 	ldw	r2,0(r16)
   453b4:	a809883a 	mov	r4,r21
   453b8:	800b883a 	mov	r5,r16
   453bc:	14c5883a 	add	r2,r2,r19
   453c0:	80800015 	stw	r2,0(r16)
   453c4:	00446180 	call	44618 <_fflush_r>
   453c8:	103f3926 	beq	r2,zero,450b0 <__alt_data_end+0xfffddfb0>
   453cc:	003f5006 	br	45110 <__alt_data_end+0xfffde010>
   453d0:	95800044 	addi	r22,r18,1
   453d4:	00c00044 	movi	r3,1
   453d8:	003f5706 	br	45138 <__alt_data_end+0xfffde038>
   453dc:	80c0030b 	ldhu	r3,12(r16)
   453e0:	00bfffc4 	movi	r2,-1
   453e4:	18c01014 	ori	r3,r3,64
   453e8:	80c0030d 	sth	r3,12(r16)
   453ec:	00c00244 	movi	r3,9
   453f0:	a8c00015 	stw	r3,0(r21)
   453f4:	003ef906 	br	44fdc <__alt_data_end+0xfffddedc>

000453f8 <_fwalk>:
   453f8:	defff904 	addi	sp,sp,-28
   453fc:	dcc00315 	stw	r19,12(sp)
   45400:	24c0b804 	addi	r19,r4,736
   45404:	dd400515 	stw	r21,20(sp)
   45408:	dd000415 	stw	r20,16(sp)
   4540c:	dfc00615 	stw	ra,24(sp)
   45410:	dc800215 	stw	r18,8(sp)
   45414:	dc400115 	stw	r17,4(sp)
   45418:	dc000015 	stw	r16,0(sp)
   4541c:	282b883a 	mov	r21,r5
   45420:	0029883a 	mov	r20,zero
   45424:	0044ac80 	call	44ac8 <__sfp_lock_acquire>
   45428:	98001226 	beq	r19,zero,45474 <_fwalk+0x7c>
   4542c:	04bfffc4 	movi	r18,-1
   45430:	9c400117 	ldw	r17,4(r19)
   45434:	9c000217 	ldw	r16,8(r19)
   45438:	8c7fffc4 	addi	r17,r17,-1
   4543c:	88000b16 	blt	r17,zero,4546c <_fwalk+0x74>
   45440:	84000304 	addi	r16,r16,12
   45444:	80c0000f 	ldh	r3,0(r16)
   45448:	8c7fffc4 	addi	r17,r17,-1
   4544c:	813ffd04 	addi	r4,r16,-12
   45450:	18000426 	beq	r3,zero,45464 <_fwalk+0x6c>
   45454:	80c0008f 	ldh	r3,2(r16)
   45458:	1c800226 	beq	r3,r18,45464 <_fwalk+0x6c>
   4545c:	a83ee83a 	callr	r21
   45460:	a0a8b03a 	or	r20,r20,r2
   45464:	84001704 	addi	r16,r16,92
   45468:	8cbff61e 	bne	r17,r18,45444 <__alt_data_end+0xfffde344>
   4546c:	9cc00017 	ldw	r19,0(r19)
   45470:	983fef1e 	bne	r19,zero,45430 <__alt_data_end+0xfffde330>
   45474:	0044acc0 	call	44acc <__sfp_lock_release>
   45478:	a005883a 	mov	r2,r20
   4547c:	dfc00617 	ldw	ra,24(sp)
   45480:	dd400517 	ldw	r21,20(sp)
   45484:	dd000417 	ldw	r20,16(sp)
   45488:	dcc00317 	ldw	r19,12(sp)
   4548c:	dc800217 	ldw	r18,8(sp)
   45490:	dc400117 	ldw	r17,4(sp)
   45494:	dc000017 	ldw	r16,0(sp)
   45498:	dec00704 	addi	sp,sp,28
   4549c:	f800283a 	ret

000454a0 <_fwalk_reent>:
   454a0:	defff804 	addi	sp,sp,-32
   454a4:	dcc00315 	stw	r19,12(sp)
   454a8:	24c0b804 	addi	r19,r4,736
   454ac:	dd800615 	stw	r22,24(sp)
   454b0:	dd400515 	stw	r21,20(sp)
   454b4:	dd000415 	stw	r20,16(sp)
   454b8:	dfc00715 	stw	ra,28(sp)
   454bc:	dc800215 	stw	r18,8(sp)
   454c0:	dc400115 	stw	r17,4(sp)
   454c4:	dc000015 	stw	r16,0(sp)
   454c8:	2029883a 	mov	r20,r4
   454cc:	282b883a 	mov	r21,r5
   454d0:	002d883a 	mov	r22,zero
   454d4:	0044ac80 	call	44ac8 <__sfp_lock_acquire>
   454d8:	98001326 	beq	r19,zero,45528 <_fwalk_reent+0x88>
   454dc:	04bfffc4 	movi	r18,-1
   454e0:	9c400117 	ldw	r17,4(r19)
   454e4:	9c000217 	ldw	r16,8(r19)
   454e8:	8c7fffc4 	addi	r17,r17,-1
   454ec:	88000c16 	blt	r17,zero,45520 <_fwalk_reent+0x80>
   454f0:	84000304 	addi	r16,r16,12
   454f4:	80c0000f 	ldh	r3,0(r16)
   454f8:	8c7fffc4 	addi	r17,r17,-1
   454fc:	817ffd04 	addi	r5,r16,-12
   45500:	18000526 	beq	r3,zero,45518 <_fwalk_reent+0x78>
   45504:	80c0008f 	ldh	r3,2(r16)
   45508:	a009883a 	mov	r4,r20
   4550c:	1c800226 	beq	r3,r18,45518 <_fwalk_reent+0x78>
   45510:	a83ee83a 	callr	r21
   45514:	b0acb03a 	or	r22,r22,r2
   45518:	84001704 	addi	r16,r16,92
   4551c:	8cbff51e 	bne	r17,r18,454f4 <__alt_data_end+0xfffde3f4>
   45520:	9cc00017 	ldw	r19,0(r19)
   45524:	983fee1e 	bne	r19,zero,454e0 <__alt_data_end+0xfffde3e0>
   45528:	0044acc0 	call	44acc <__sfp_lock_release>
   4552c:	b005883a 	mov	r2,r22
   45530:	dfc00717 	ldw	ra,28(sp)
   45534:	dd800617 	ldw	r22,24(sp)
   45538:	dd400517 	ldw	r21,20(sp)
   4553c:	dd000417 	ldw	r20,16(sp)
   45540:	dcc00317 	ldw	r19,12(sp)
   45544:	dc800217 	ldw	r18,8(sp)
   45548:	dc400117 	ldw	r17,4(sp)
   4554c:	dc000017 	ldw	r16,0(sp)
   45550:	dec00804 	addi	sp,sp,32
   45554:	f800283a 	ret

00045558 <_setlocale_r>:
   45558:	defffc04 	addi	sp,sp,-16
   4555c:	dc800215 	stw	r18,8(sp)
   45560:	dc400115 	stw	r17,4(sp)
   45564:	dc000015 	stw	r16,0(sp)
   45568:	dfc00315 	stw	ra,12(sp)
   4556c:	3021883a 	mov	r16,r6
   45570:	2023883a 	mov	r17,r4
   45574:	2825883a 	mov	r18,r5
   45578:	30001626 	beq	r6,zero,455d4 <_setlocale_r+0x7c>
   4557c:	3009883a 	mov	r4,r6
   45580:	01400174 	movhi	r5,5
   45584:	2970e004 	addi	r5,r5,-15488
   45588:	0047b000 	call	47b00 <strcmp>
   4558c:	10000a1e 	bne	r2,zero,455b8 <_setlocale_r+0x60>
   45590:	8c800c15 	stw	r18,48(r17)
   45594:	8c000d15 	stw	r16,52(r17)
   45598:	00800174 	movhi	r2,5
   4559c:	10b0e004 	addi	r2,r2,-15488
   455a0:	dfc00317 	ldw	ra,12(sp)
   455a4:	dc800217 	ldw	r18,8(sp)
   455a8:	dc400117 	ldw	r17,4(sp)
   455ac:	dc000017 	ldw	r16,0(sp)
   455b0:	dec00404 	addi	sp,sp,16
   455b4:	f800283a 	ret
   455b8:	8009883a 	mov	r4,r16
   455bc:	01400174 	movhi	r5,5
   455c0:	2970cb04 	addi	r5,r5,-15572
   455c4:	0047b000 	call	47b00 <strcmp>
   455c8:	103ff126 	beq	r2,zero,45590 <__alt_data_end+0xfffde490>
   455cc:	0005883a 	mov	r2,zero
   455d0:	003ff306 	br	455a0 <__alt_data_end+0xfffde4a0>
   455d4:	00800174 	movhi	r2,5
   455d8:	10b0e004 	addi	r2,r2,-15488
   455dc:	dfc00317 	ldw	ra,12(sp)
   455e0:	dc800217 	ldw	r18,8(sp)
   455e4:	dc400117 	ldw	r17,4(sp)
   455e8:	dc000017 	ldw	r16,0(sp)
   455ec:	dec00404 	addi	sp,sp,16
   455f0:	f800283a 	ret

000455f4 <__locale_charset>:
   455f4:	00800174 	movhi	r2,5
   455f8:	10b0e104 	addi	r2,r2,-15484
   455fc:	f800283a 	ret

00045600 <_localeconv_r>:
   45600:	00800174 	movhi	r2,5
   45604:	10b0e504 	addi	r2,r2,-15468
   45608:	f800283a 	ret

0004560c <setlocale>:
   4560c:	00c00174 	movhi	r3,5
   45610:	18f7cd04 	addi	r3,r3,-8396
   45614:	2005883a 	mov	r2,r4
   45618:	19000017 	ldw	r4,0(r3)
   4561c:	280d883a 	mov	r6,r5
   45620:	100b883a 	mov	r5,r2
   45624:	00455581 	jmpi	45558 <_setlocale_r>

00045628 <localeconv>:
   45628:	00800174 	movhi	r2,5
   4562c:	10b0e504 	addi	r2,r2,-15468
   45630:	f800283a 	ret

00045634 <__smakebuf_r>:
   45634:	2880030b 	ldhu	r2,12(r5)
   45638:	deffed04 	addi	sp,sp,-76
   4563c:	dc401015 	stw	r17,64(sp)
   45640:	10c0008c 	andi	r3,r2,2
   45644:	18ffffcc 	andi	r3,r3,65535
   45648:	18e0001c 	xori	r3,r3,32768
   4564c:	dc000f15 	stw	r16,60(sp)
   45650:	dfc01215 	stw	ra,72(sp)
   45654:	dc801115 	stw	r18,68(sp)
   45658:	18e00004 	addi	r3,r3,-32768
   4565c:	2821883a 	mov	r16,r5
   45660:	2023883a 	mov	r17,r4
   45664:	1800381e 	bne	r3,zero,45748 <__smakebuf_r+0x114>
   45668:	2940038f 	ldh	r5,14(r5)
   4566c:	28002d16 	blt	r5,zero,45724 <__smakebuf_r+0xf0>
   45670:	d80d883a 	mov	r6,sp
   45674:	0047e800 	call	47e80 <_fstat_r>
   45678:	10002916 	blt	r2,zero,45720 <__smakebuf_r+0xec>
   4567c:	d8800117 	ldw	r2,4(sp)
   45680:	00e00014 	movui	r3,32768
   45684:	10bc000c 	andi	r2,r2,61440
   45688:	10c03c26 	beq	r2,r3,4577c <__smakebuf_r+0x148>
   4568c:	80c0030b 	ldhu	r3,12(r16)
   45690:	18c20014 	ori	r3,r3,2048
   45694:	80c0030d 	sth	r3,12(r16)
   45698:	00c80004 	movi	r3,8192
   4569c:	10c00c1e 	bne	r2,r3,456d0 <__smakebuf_r+0x9c>
   456a0:	8140038f 	ldh	r5,14(r16)
   456a4:	8809883a 	mov	r4,r17
